(lp0
(iLocation
Location
p1
(dp2
S'_y'
p3
cdecimal
Decimal
p4
(S'13.7380259'
p5
tp6
Rp7
sS'_x'
p8
g4
(S'51.0879265'
p9
tp10
Rp11
sba(iLocation
Location
p12
(dp13
g3
g4
(S'13.8954273'
p14
tp15
Rp16
sg8
g4
(S'51.0009659'
p17
tp18
Rp19
sba(iLocation
Location
p20
(dp21
g3
g4
(S'13.6947212'
p22
tp23
Rp24
sg8
g4
(S'51.0332407'
p25
tp26
Rp27
sba(iLocation
Location
p28
(dp29
g3
g4
(S'13.7419360'
p30
tp31
Rp32
sg8
g4
(S'51.0643418'
p33
tp34
Rp35
sba(iLocation
Location
p36
(dp37
g3
g4
(S'13.7569761'
p38
tp39
Rp40
sg8
g4
(S'51.0332270'
p41
tp42
Rp43
sba(iLocation
Location
p44
(dp45
g3
g4
(S'13.5987893'
p46
tp47
Rp48
sg8
g4
(S'50.9732194'
p49
tp50
Rp51
sba(iLocation
Location
p52
(dp53
g3
g4
(S'13.5903792'
p54
tp55
Rp56
sg8
g4
(S'51.0333811'
p57
tp58
Rp59
sba(iLocation
Location
p60
(dp61
g3
g4
(S'13.7391908'
p62
tp63
Rp64
sg8
g4
(S'51.0405883'
p65
tp66
Rp67
sba(iLocation
Location
p68
(dp69
g3
g4
(S'13.7926126'
p70
tp71
Rp72
sg8
g4
(S'51.0361027'
p73
tp74
Rp75
sba(iLocation
Location
p76
(dp77
g3
g4
(S'13.7470342'
p78
tp79
Rp80
sg8
g4
(S'51.0792948'
p81
tp82
Rp83
sba(iLocation
Location
p84
(dp85
g3
g4
(S'13.8526995'
p86
tp87
Rp88
sg8
g4
(S'50.9781954'
p89
tp90
Rp91
sba(iLocation
Location
p92
(dp93
g3
g4
(S'13.7176463'
p94
tp95
Rp96
sg8
g4
(S'51.0262818'
p97
tp98
Rp99
sba(iLocation
Location
p100
(dp101
g3
g4
(S'13.6477827'
p102
tp103
Rp104
sg8
g4
(S'50.9596752'
p105
tp106
Rp107
sba(iLocation
Location
p108
(dp109
g3
g4
(S'13.7489932'
p110
tp111
Rp112
sg8
g4
(S'51.0543735'
p113
tp114
Rp115
sba(iLocation
Location
p116
(dp117
g3
g4
(S'13.7347644'
p118
tp119
Rp120
sg8
g4
(S'51.0471622'
p121
tp122
Rp123
sba(iLocation
Location
p124
(dp125
g3
g4
(S'13.6496117'
p126
tp127
Rp128
sg8
g4
(S'50.9617470'
p129
tp130
Rp131
sba(iLocation
Location
p132
(dp133
g3
g4
(S'13.6909411'
p134
tp135
Rp136
sg8
g4
(S'51.0784138'
p137
tp138
Rp139
sba(iLocation
Location
p140
(dp141
g3
g4
(S'13.6321233'
p142
tp143
Rp144
sg8
g4
(S'51.0418994'
p145
tp146
Rp147
sba(iLocation
Location
p148
(dp149
g3
g4
(S'13.7466372'
p150
tp151
Rp152
sg8
g4
(S'51.1063011'
p153
tp154
Rp155
sba(iLocation
Location
p156
(dp157
g3
g4
(S'13.7908600'
p158
tp159
Rp160
sg8
g4
(S'51.0371004'
p161
tp162
Rp163
sba(iLocation
Location
p164
(dp165
g3
g4
(S'13.7828610'
p166
tp167
Rp168
sg8
g4
(S'51.0506018'
p169
tp170
Rp171
sba(iLocation
Location
p172
(dp173
g3
g4
(S'13.8795926'
p174
tp175
Rp176
sg8
g4
(S'51.0133030'
p177
tp178
Rp179
sba(iLocation
Location
p180
(dp181
g3
g4
(S'13.6777430'
p182
tp183
Rp184
sg8
g4
(S'51.0436292'
p185
tp186
Rp187
sba(iLocation
Location
p188
(dp189
g3
g4
(S'13.7739161'
p190
tp191
Rp192
sg8
g4
(S'51.0132225'
p193
tp194
Rp195
sba(iLocation
Location
p196
(dp197
g3
g4
(S'13.7050768'
p198
tp199
Rp200
sg8
g4
(S'51.0929892'
p201
tp202
Rp203
sba(iLocation
Location
p204
(dp205
g3
g4
(S'13.7004541'
p206
tp207
Rp208
sg8
g4
(S'51.0173921'
p209
tp210
Rp211
sba(iLocation
Location
p212
(dp213
g3
g4
(S'13.7292339'
p214
tp215
Rp216
sg8
g4
(S'51.0465771'
p217
tp218
Rp219
sba(iLocation
Location
p220
(dp221
g3
g4
(S'13.8719446'
p222
tp223
Rp224
sg8
g4
(S'50.9786165'
p225
tp226
Rp227
sba(iLocation
Location
p228
(dp229
g3
g4
(S'13.7014855'
p230
tp231
Rp232
sg8
g4
(S'51.0304197'
p233
tp234
Rp235
sba(iLocation
Location
p236
(dp237
g3
g4
(S'13.6797938'
p238
tp239
Rp240
sg8
g4
(S'51.0717584'
p241
tp242
Rp243
sba(iLocation
Location
p244
(dp245
g3
g4
(S'13.7110787'
p246
tp247
Rp248
sg8
g4
(S'51.0879385'
p249
tp250
Rp251
sba(iLocation
Location
p252
(dp253
g3
g4
(S'13.6629003'
p254
tp255
Rp256
sg8
g4
(S'51.0048265'
p257
tp258
Rp259
sba(iLocation
Location
p260
(dp261
g3
g4
(S'13.8090433'
p262
tp263
Rp264
sg8
g4
(S'50.9788571'
p265
tp266
Rp267
sba(iLocation
Location
p268
(dp269
g3
g4
(S'13.6150606'
p270
tp271
Rp272
sg8
g4
(S'51.0125304'
p273
tp274
Rp275
sba(iLocation
Location
p276
(dp277
g3
g4
(S'13.7030938'
p278
tp279
Rp280
sg8
g4
(S'51.0880247'
p281
tp282
Rp283
sba(iLocation
Location
p284
(dp285
g3
g4
(S'13.6357224'
p286
tp287
Rp288
sg8
g4
(S'51.0327646'
p289
tp290
Rp291
sba(iLocation
Location
p292
(dp293
g3
g4
(S'13.7165960'
p294
tp295
Rp296
sg8
g4
(S'51.0777065'
p297
tp298
Rp299
sba(iLocation
Location
p300
(dp301
g3
g4
(S'13.6252088'
p302
tp303
Rp304
sg8
g4
(S'51.0873813'
p305
tp306
Rp307
sba(iLocation
Location
p308
(dp309
g3
g4
(S'13.7366809'
p310
tp311
Rp312
sg8
g4
(S'51.0370416'
p313
tp314
Rp315
sba(iLocation
Location
p316
(dp317
g3
g4
(S'13.6307092'
p318
tp319
Rp320
sg8
g4
(S'51.0209139'
p321
tp322
Rp323
sba(iLocation
Location
p324
(dp325
g3
g4
(S'13.7884324'
p326
tp327
Rp328
sg8
g4
(S'51.0051341'
p329
tp330
Rp331
sba(iLocation
Location
p332
(dp333
g3
g4
(S'13.7386504'
p334
tp335
Rp336
sg8
g4
(S'51.0478709'
p337
tp338
Rp339
sba(iLocation
Location
p340
(dp341
g3
g4
(S'13.6833815'
p342
tp343
Rp344
sg8
g4
(S'51.0501530'
p345
tp346
Rp347
sba(iLocation
Location
p348
(dp349
g3
g4
(S'13.7460476'
p350
tp351
Rp352
sg8
g4
(S'51.0496171'
p353
tp354
Rp355
sba(iLocation
Location
p356
(dp357
g3
g4
(S'13.6980609'
p358
tp359
Rp360
sg8
g4
(S'51.0454419'
p361
tp362
Rp363
sba(iLocation
Location
p364
(dp365
g3
g4
(S'13.6094352'
p366
tp367
Rp368
sg8
g4
(S'51.0546133'
p369
tp370
Rp371
sba(iLocation
Location
p372
(dp373
g3
g4
(S'13.6765127'
p374
tp375
Rp376
sg8
g4
(S'51.0431613'
p377
tp378
Rp379
sba(iLocation
Location
p380
(dp381
g3
g4
(S'13.6847012'
p382
tp383
Rp384
sg8
g4
(S'51.0907253'
p385
tp386
Rp387
sba(iLocation
Location
p388
(dp389
g3
g4
(S'13.7248059'
p390
tp391
Rp392
sg8
g4
(S'51.0576598'
p393
tp394
Rp395
sba(iLocation
Location
p396
(dp397
g3
g4
(S'13.6343821'
p398
tp399
Rp400
sg8
g4
(S'50.9814967'
p401
tp402
Rp403
sba.