(lp0
(iLocation
Location
p1
(dp2
S'_y'
p3
F51.1012664
sS'_x'
p4
F13.6628486
sba(iLocation
Location
p5
(dp6
g3
F51.0705507
sg4
F13.812615
sba(iLocation
Location
p7
(dp8
g3
F51.0659174
sg4
F13.7407879
sba(iLocation
Location
p9
(dp10
g3
F51.0641063
sg4
F13.7563785
sba(iLocation
Location
p11
(dp12
g3
F51.0653142
sg4
F13.8112595
sba(iLocation
Location
p13
(dp14
g3
F50.9788986
sg4
F13.7368717
sba(iLocation
Location
p15
(dp16
g3
F51.0511226
sg4
F13.722406
sba(iLocation
Location
p17
(dp18
g3
F51.0613967
sg4
F13.8157242
sba(iLocation
Location
p19
(dp20
g3
F51.0376511
sg4
F13.7259985
sba(iLocation
Location
p21
(dp22
g3
F51.045893
sg4
F13.738034
sba(iLocation
Location
p23
(dp24
g3
F51.0769076
sg4
F13.7291787
sba(iLocation
Location
p25
(dp26
g3
F51.0442481
sg4
F13.7611696
sba(iLocation
Location
p27
(dp28
g3
F51.0371528
sg4
F13.6734243
sba(iLocation
Location
p29
(dp30
g3
F51.0425077
sg4
F13.8292452
sba(iLocation
Location
p31
(dp32
g3
F51.042082
sg4
F13.5974638
sba(iLocation
Location
p33
(dp34
g3
F51.02478
sg4
F13.7427351
sba(iLocation
Location
p35
(dp36
g3
F51.0099029
sg4
F13.8687386
sba(iLocation
Location
p37
(dp38
g3
F51.0474805
sg4
F13.6859786
sba(iLocation
Location
p39
(dp40
g3
F51.0214709
sg4
F13.7164812
sba(iLocation
Location
p41
(dp42
g3
F51.0109554
sg4
F13.6801762
sba(iLocation
Location
p43
(dp44
g3
F51.0198351
sg4
F13.8125356
sba(iLocation
Location
p45
(dp46
g3
F51.0612762
sg4
F13.750464
sba(iLocation
Location
p47
(dp48
g3
F50.9666042
sg4
F13.6274291
sba(iLocation
Location
p49
(dp50
g3
F50.9652272
sg4
F13.8824194
sba(iLocation
Location
p51
(dp52
g3
F51.03091
sg4
F13.7481908
sba(iLocation
Location
p53
(dp54
g3
F51.0439478
sg4
F13.6801859
sba(iLocation
Location
p55
(dp56
g3
F51.0926699
sg4
F13.7651719
sba(iLocation
Location
p57
(dp58
g3
F51.0961857
sg4
F13.7192106
sba(iLocation
Location
p59
(dp60
g3
F51.0523483
sg4
F13.7279414
sba(iLocation
Location
p61
(dp62
g3
F51.0330363
sg4
F13.6322421
sba(iLocation
Location
p63
(dp64
g3
F50.9671363
sg4
F13.6434779
sba(iLocation
Location
p65
(dp66
g3
F51.0792331
sg4
F13.689459
sba(iLocation
Location
p67
(dp68
g3
F51.0173097
sg4
F13.6490473
sba(iLocation
Location
p69
(dp70
g3
F51.0362694
sg4
F13.7844861
sba(iLocation
Location
p71
(dp72
g3
F51.0708389
sg4
F13.6658704
sba(iLocation
Location
p73
(dp74
g3
F51.0438513
sg4
F13.7840233
sba(iLocation
Location
p75
(dp76
g3
F51.0453781
sg4
F13.8134684
sba(iLocation
Location
p77
(dp78
g3
F51.0100163
sg4
F13.7975933
sba(iLocation
Location
p79
(dp80
g3
F51.022942
sg4
F13.8089296
sba(iLocation
Location
p81
(dp82
g3
F51.063867
sg4
F13.7367166
sba(iLocation
Location
p83
(dp84
g3
F51.0278768
sg4
F13.8008758
sba(iLocation
Location
p85
(dp86
g3
F51.0532403
sg4
F13.7515834
sba(iLocation
Location
p87
(dp88
g3
F51.0366813
sg4
F13.7717827
sba(iLocation
Location
p89
(dp90
g3
F51.024258
sg4
F13.6987299
sba(iLocation
Location
p91
(dp92
g3
F50.9672649
sg4
F13.6435656
sba(iLocation
Location
p93
(dp94
g3
F51.0102739
sg4
F13.8508545
sba(iLocation
Location
p95
(dp96
g3
F51.0825001
sg4
F13.7123266
sba(iLocation
Location
p97
(dp98
g3
F51.0580049
sg4
F13.7319941
sba(iLocation
Location
p99
(dp100
g3
F51.0460649
sg4
F13.6403963
sba(iLocation
Location
p101
(dp102
g3
F50.9938488
sg4
F13.6455447
sba(iLocation
Location
p103
(dp104
g3
F51.0205482
sg4
F13.7074007
sba(iLocation
Location
p105
(dp106
g3
F51.0143334
sg4
F13.7208138
sba(iLocation
Location
p107
(dp108
g3
F51.0530983
sg4
F13.7798262
sba(iLocation
Location
p109
(dp110
g3
F51.007655
sg4
F13.6546019
sba(iLocation
Location
p111
(dp112
g3
F51.0500711
sg4
F13.6878015
sba(iLocation
Location
p113
(dp114
g3
F51.0877256
sg4
F13.7326675
sba(iLocation
Location
p115
(dp116
g3
F51.0400992
sg4
F13.7710758
sba(iLocation
Location
p117
(dp118
g3
F51.047161
sg4
F13.7409194
sba(iLocation
Location
p119
(dp120
g3
F50.998103
sg4
F13.6489287
sba(iLocation
Location
p121
(dp122
g3
F50.9835744
sg4
F13.6548967
sba(iLocation
Location
p123
(dp124
g3
F51.0606137
sg4
F13.7831286
sba(iLocation
Location
p125
(dp126
g3
F51.0564915
sg4
F13.7802498
sba(iLocation
Location
p127
(dp128
g3
F51.0275559
sg4
F13.8036548
sba(iLocation
Location
p129
(dp130
g3
F51.0723223
sg4
F13.6794942
sba(iLocation
Location
p131
(dp132
g3
F51.0773882
sg4
F13.7187035
sba(iLocation
Location
p133
(dp134
g3
F51.0271304
sg4
F13.6080471
sba(iLocation
Location
p135
(dp136
g3
F51.0904446
sg4
F13.7665464
sba(iLocation
Location
p137
(dp138
g3
F51.0640413
sg4
F13.8483258
sba(iLocation
Location
p139
(dp140
g3
F51.0271582
sg4
F13.8325506
sba(iLocation
Location
p141
(dp142
g3
F51.0146227
sg4
F13.6426028
sba(iLocation
Location
p143
(dp144
g3
F51.0411456
sg4
F13.7393019
sba(iLocation
Location
p145
(dp146
g3
F51.0649248
sg4
F13.7181053
sba(iLocation
Location
p147
(dp148
g3
F51.0543614
sg4
F13.8943787
sba(iLocation
Location
p149
(dp150
g3
F51.0301866
sg4
F13.8198753
sba(iLocation
Location
p151
(dp152
g3
F51.0597033
sg4
F13.6831091
sba(iLocation
Location
p153
(dp154
g3
F51.0681435
sg4
F13.7409121
sba(iLocation
Location
p155
(dp156
g3
F51.074982
sg4
F13.7902235
sba(iLocation
Location
p157
(dp158
g3
F51.0345159
sg4
F13.8183833
sba(iLocation
Location
p159
(dp160
g3
F51.0642304
sg4
F13.7323642
sba(iLocation
Location
p161
(dp162
g3
F51.049987
sg4
F13.6657198
sba(iLocation
Location
p163
(dp164
g3
F51.0246676
sg4
F13.783133
sba(iLocation
Location
p165
(dp166
g3
F51.0510156
sg4
F13.7361209
sba(iLocation
Location
p167
(dp168
g3
F51.035282
sg4
F13.7438395
sba(iLocation
Location
p169
(dp170
g3
F51.0381592
sg4
F13.794328
sba(iLocation
Location
p171
(dp172
g3
F51.057575
sg4
F13.7249625
sba(iLocation
Location
p173
(dp174
g3
F51.0535895
sg4
F13.7586142
sba(iLocation
Location
p175
(dp176
g3
F51.0574011
sg4
F13.7516084
sba(iLocation
Location
p177
(dp178
g3
F51.037842
sg4
F13.7578159
sba(iLocation
Location
p179
(dp180
g3
F51.0289384
sg4
F13.7304648
sba(iLocation
Location
p181
(dp182
g3
F51.0110413
sg4
F13.8432187
sba(iLocation
Location
p183
(dp184
g3
F51.0053877
sg4
F13.661854
sba(iLocation
Location
p185
(dp186
g3
F50.9699889
sg4
F13.6617494
sba(iLocation
Location
p187
(dp188
g3
F50.9914197
sg4
F13.6414464
sba(iLocation
Location
p189
(dp190
g3
F50.9675384
sg4
F13.8446983
sba(iLocation
Location
p191
(dp192
g3
F50.970575
sg4
F13.7881515
sba(iLocation
Location
p193
(dp194
g3
F51.0522396
sg4
F13.6720625
sba(iLocation
Location
p195
(dp196
g3
F51.0833942
sg4
F13.7506276
sba(iLocation
Location
p197
(dp198
g3
F51.0258969
sg4
F13.7216987
sba(iLocation
Location
p199
(dp200
g3
F51.0613708
sg4
F13.8329547
sba(iLocation
Location
p201
(dp202
g3
F51.0078211
sg4
F13.8702323
sba(iLocation
Location
p203
(dp204
g3
F51.0133751
sg4
F13.6618649
sba(iLocation
Location
p205
(dp206
g3
F50.999769
sg4
F13.6486417
sba(iLocation
Location
p207
(dp208
g3
F51.078536
sg4
F13.6900136
sba(iLocation
Location
p209
(dp210
g3
F50.9953109
sg4
F13.6663334
sba(iLocation
Location
p211
(dp212
g3
F51.0324034
sg4
F13.6991264
sba(iLocation
Location
p213
(dp214
g3
F51.0619479
sg4
F13.6905139
sba(iLocation
Location
p215
(dp216
g3
F51.0539156
sg4
F13.7396814
sba(iLocation
Location
p217
(dp218
g3
F51.080754
sg4
F13.7448882
sba(iLocation
Location
p219
(dp220
g3
F51.0727099
sg4
F13.7521365
sba(iLocation
Location
p221
(dp222
g3
F51.0608168
sg4
F13.8301455
sba(iLocation
Location
p223
(dp224
g3
F51.0486969
sg4
F13.7599916
sba(iLocation
Location
p225
(dp226
g3
F51.0466047
sg4
F13.7577538
sba(iLocation
Location
p227
(dp228
g3
F50.9975294
sg4
F13.5810957
sba(iLocation
Location
p229
(dp230
g3
F51.0647541
sg4
F13.7905867
sba(iLocation
Location
p231
(dp232
g3
F51.0826767
sg4
F13.7009842
sba(iLocation
Location
p233
(dp234
g3
F51.0613221
sg4
F13.6247519
sba(iLocation
Location
p235
(dp236
g3
F51.0995449
sg4
F13.6524701
sba(iLocation
Location
p237
(dp238
g3
F51.0169084
sg4
F13.6307689
sba(iLocation
Location
p239
(dp240
g3
F51.0482944
sg4
F13.8253122
sba(iLocation
Location
p241
(dp242
g3
F51.0471255
sg4
F13.7356448
sba(iLocation
Location
p243
(dp244
g3
F51.0329056
sg4
F13.7194944
sba(iLocation
Location
p245
(dp246
g3
F51.0324258
sg4
F13.7714809
sba(iLocation
Location
p247
(dp248
g3
F51.0336449
sg4
F13.8249855
sba(iLocation
Location
p249
(dp250
g3
F51.0024345
sg4
F13.615175
sba(iLocation
Location
p251
(dp252
g3
F51.0914233
sg4
F13.7474188
sba(iLocation
Location
p253
(dp254
g3
F51.0777532
sg4
F13.6023693
sba(iLocation
Location
p255
(dp256
g3
F51.0859804
sg4
F13.5985855
sba(iLocation
Location
p257
(dp258
g3
F51.0798369
sg4
F13.7516065
sba(iLocation
Location
p259
(dp260
g3
F51.063147
sg4
F13.7768208
sba(iLocation
Location
p261
(dp262
g3
F51.0286719
sg4
F13.7360369
sba(iLocation
Location
p263
(dp264
g3
F51.0502457
sg4
F13.6665435
sba(iLocation
Location
p265
(dp266
g3
F51.0811908
sg4
F13.6934213
sba(iLocation
Location
p267
(dp268
g3
F50.9781003
sg4
F13.628605
sba(iLocation
Location
p269
(dp270
g3
F51.0566952
sg4
F13.7704225
sba(iLocation
Location
p271
(dp272
g3
F51.0435552
sg4
F13.7043095
sba(iLocation
Location
p273
(dp274
g3
F51.0679376
sg4
F13.6365251
sba(iLocation
Location
p275
(dp276
g3
F50.992884
sg4
F13.9007533
sba(iLocation
Location
p277
(dp278
g3
F51.0535107
sg4
F13.6887285
sba(iLocation
Location
p279
(dp280
g3
F50.9812817
sg4
F13.8635481
sba(iLocation
Location
p281
(dp282
g3
F50.9603248
sg4
F13.8233966
sba(iLocation
Location
p283
(dp284
g3
F51.100097
sg4
F13.7148869
sba(iLocation
Location
p285
(dp286
g3
F51.0353456
sg4
F13.7559259
sba(iLocation
Location
p287
(dp288
g3
F51.0325231
sg4
F13.8252259
sba(iLocation
Location
p289
(dp290
g3
F51.0242456
sg4
F13.7073213
sba(iLocation
Location
p291
(dp292
g3
F51.0480255
sg4
F13.8598442
sba(iLocation
Location
p293
(dp294
g3
F51.0943848
sg4
F13.7197927
sba(iLocation
Location
p295
(dp296
g3
F51.0350174
sg4
F13.7338265
sba(iLocation
Location
p297
(dp298
g3
F51.0440828
sg4
F13.6784761
sba(iLocation
Location
p299
(dp300
g3
F50.9687895
sg4
F13.8670434
sba(iLocation
Location
p301
(dp302
g3
F51.0056317
sg4
F13.6576982
sba(iLocation
Location
p303
(dp304
g3
F51.0295347
sg4
F13.7159716
sba(iLocation
Location
p305
(dp306
g3
F51.0330426
sg4
F13.6351689
sba(iLocation
Location
p307
(dp308
g3
F50.968493
sg4
F13.8505418
sba(iLocation
Location
p309
(dp310
g3
F51.0603155
sg4
F13.7419062
sba(iLocation
Location
p311
(dp312
g3
F51.0619077
sg4
F13.8097413
sba(iLocation
Location
p313
(dp314
g3
F51.0517745
sg4
F13.734056
sba(iLocation
Location
p315
(dp316
g3
F51.0562037
sg4
F13.7843623
sba(iLocation
Location
p317
(dp318
g3
F51.0423148
sg4
F13.6994622
sba(iLocation
Location
p319
(dp320
g3
F51.0143969
sg4
F13.7798856
sba(iLocation
Location
p321
(dp322
g3
F51.0117558
sg4
F13.8090031
sba(iLocation
Location
p323
(dp324
g3
F51.0343655
sg4
F13.7355856
sba(iLocation
Location
p325
(dp326
g3
F51.0048111
sg4
F13.8531472
sba(iLocation
Location
p327
(dp328
g3
F51.0133248
sg4
F13.7431237
sba(iLocation
Location
p329
(dp330
g3
F51.0256072
sg4
F13.6544149
sba(iLocation
Location
p331
(dp332
g3
F51.063969
sg4
F13.7381128
sba(iLocation
Location
p333
(dp334
g3
F50.9962256
sg4
F13.6464022
sba(iLocation
Location
p335
(dp336
g3
F51.0120064
sg4
F13.8090374
sba(iLocation
Location
p337
(dp338
g3
F50.9637449
sg4
F13.8807758
sba(iLocation
Location
p339
(dp340
g3
F51.0874792
sg4
F13.7296594
sba(iLocation
Location
p341
(dp342
g3
F51.0134933
sg4
F13.6311278
sba(iLocation
Location
p343
(dp344
g3
F51.0231703
sg4
F13.8504276
sba(iLocation
Location
p345
(dp346
g3
F51.0317293
sg4
F13.7129627
sba(iLocation
Location
p347
(dp348
g3
F51.0697518
sg4
F13.7755202
sba(iLocation
Location
p349
(dp350
g3
F51.0578896
sg4
F13.7390753
sba(iLocation
Location
p351
(dp352
g3
F51.0358641
sg4
F13.6964072
sba(iLocation
Location
p353
(dp354
g3
F50.9798888
sg4
F13.5767767
sba(iLocation
Location
p355
(dp356
g3
F51.034332
sg4
F13.7848898
sba(iLocation
Location
p357
(dp358
g3
F51.058009
sg4
F13.7444343
sba(iLocation
Location
p359
(dp360
g3
F51.0276596
sg4
F13.6521223
sba(iLocation
Location
p361
(dp362
g3
F51.0235952
sg4
F13.7848381
sba(iLocation
Location
p363
(dp364
g3
F51.0605624
sg4
F13.6061371
sba(iLocation
Location
p365
(dp366
g3
F51.0219954
sg4
F13.7400793
sba(iLocation
Location
p367
(dp368
g3
F51.0826266
sg4
F13.6801032
sba(iLocation
Location
p369
(dp370
g3
F51.0555034
sg4
F13.6628946
sba(iLocation
Location
p371
(dp372
g3
F51.0557743
sg4
F13.7812629
sba(iLocation
Location
p373
(dp374
g3
F51.0697232
sg4
F13.7563461
sba(iLocation
Location
p375
(dp376
g3
F51.0127431
sg4
F13.7811138
sba(iLocation
Location
p377
(dp378
g3
F51.0597105
sg4
F13.7179512
sba(iLocation
Location
p379
(dp380
g3
F51.084391
sg4
F13.7275575
sba(iLocation
Location
p381
(dp382
g3
F51.059186
sg4
F13.8771486
sba(iLocation
Location
p383
(dp384
g3
F51.0285354
sg4
F13.7308628
sba(iLocation
Location
p385
(dp386
g3
F51.014433
sg4
F13.7926527
sba(iLocation
Location
p387
(dp388
g3
F51.0523656
sg4
F13.7688599
sba(iLocation
Location
p389
(dp390
g3
F51.0391946
sg4
F13.7602855
sba(iLocation
Location
p391
(dp392
g3
F51.0516942
sg4
F13.8164643
sba(iLocation
Location
p393
(dp394
g3
F51.0316211
sg4
F13.5865091
sba(iLocation
Location
p395
(dp396
g3
F51.0196062
sg4
F13.6512457
sba(iLocation
Location
p397
(dp398
g3
F51.0345737
sg4
F13.7832581
sba(iLocation
Location
p399
(dp400
g3
F51.037471
sg4
F13.6387337
sba(iLocation
Location
p401
(dp402
g3
F51.0313255
sg4
F13.664874
sba(iLocation
Location
p403
(dp404
g3
F51.017591
sg4
F13.7831783
sba(iLocation
Location
p405
(dp406
g3
F51.003512
sg4
F13.7954522
sba(iLocation
Location
p407
(dp408
g3
F50.9794151
sg4
F13.719266
sba(iLocation
Location
p409
(dp410
g3
F51.0469543
sg4
F13.7348375
sba(iLocation
Location
p411
(dp412
g3
F51.1001382
sg4
F13.680021
sba(iLocation
Location
p413
(dp414
g3
F51.035555
sg4
F13.6811034
sba(iLocation
Location
p415
(dp416
g3
F51.0107445
sg4
F13.6564468
sba(iLocation
Location
p417
(dp418
g3
F51.0540083
sg4
F13.7577646
sba(iLocation
Location
p419
(dp420
g3
F51.0697109
sg4
F13.7752829
sba(iLocation
Location
p421
(dp422
g3
F51.0547786
sg4
F13.7832621
sba(iLocation
Location
p423
(dp424
g3
F51.0222714
sg4
F13.8089065
sba(iLocation
Location
p425
(dp426
g3
F51.0679749
sg4
F13.753552
sba(iLocation
Location
p427
(dp428
g3
F51.0026305
sg4
F13.8452182
sba(iLocation
Location
p429
(dp430
g3
F51.057685
sg4
F13.7431497
sba(iLocation
Location
p431
(dp432
g3
F51.0087775
sg4
F13.6597694
sba(iLocation
Location
p433
(dp434
g3
F51.0434748
sg4
F13.6773447
sba(iLocation
Location
p435
(dp436
g3
F51.0444794
sg4
F13.7382851
sba(iLocation
Location
p437
(dp438
g3
F50.9810505
sg4
F13.7307697
sba(iLocation
Location
p439
(dp440
g3
F51.0273781
sg4
F13.6584247
sba(iLocation
Location
p441
(dp442
g3
F50.9827036
sg4
F13.7426177
sba(iLocation
Location
p443
(dp444
g3
F51.087449
sg4
F13.611378
sba(iLocation
Location
p445
(dp446
g3
F51.0168228
sg4
F13.775239
sba(iLocation
Location
p447
(dp448
g3
F50.9957334
sg4
F13.7942953
sba(iLocation
Location
p449
(dp450
g3
F51.0100979
sg4
F13.8308459
sba(iLocation
Location
p451
(dp452
g3
F51.0259206
sg4
F13.8337274
sba(iLocation
Location
p453
(dp454
g3
F51.0067753
sg4
F13.8399138
sba(iLocation
Location
p455
(dp456
g3
F51.0964616
sg4
F13.6597287
sba(iLocation
Location
p457
(dp458
g3
F50.9773606
sg4
F13.6257548
sba(iLocation
Location
p459
(dp460
g3
F50.9848284
sg4
F13.6322643
sba(iLocation
Location
p461
(dp462
g3
F51.0590306
sg4
F13.7399027
sba(iLocation
Location
p463
(dp464
g3
F51.033691
sg4
F13.8380098
sba(iLocation
Location
p465
(dp466
g3
F51.0098654
sg4
F13.6609874
sba(iLocation
Location
p467
(dp468
g3
F51.0628517
sg4
F13.7546729
sba(iLocation
Location
p469
(dp470
g3
F51.0326651
sg4
F13.8101059
sba(iLocation
Location
p471
(dp472
g3
F51.0123081
sg4
F13.6153176
sba(iLocation
Location
p473
(dp474
g3
F51.0533565
sg4
F13.7724757
sba(iLocation
Location
p475
(dp476
g3
F51.0057511
sg4
F13.6474161
sba(iLocation
Location
p477
(dp478
g3
F51.0097979
sg4
F13.7687784
sba(iLocation
Location
p479
(dp480
g3
F51.0378085
sg4
F13.85054
sba(iLocation
Location
p481
(dp482
g3
F51.0214604
sg4
F13.7504446
sba(iLocation
Location
p483
(dp484
g3
F51.0192186
sg4
F13.7291635
sba(iLocation
Location
p485
(dp486
g3
F50.9767603
sg4
F13.8868167
sba(iLocation
Location
p487
(dp488
g3
F51.0689772
sg4
F13.7230246
sba(iLocation
Location
p489
(dp490
g3
F51.0496817
sg4
F13.7807772
sba(iLocation
Location
p491
(dp492
g3
F51.0796809
sg4
F13.7303583
sba(iLocation
Location
p493
(dp494
g3
F51.0543845
sg4
F13.6789048
sba(iLocation
Location
p495
(dp496
g3
F51.0721905
sg4
F13.6845387
sba(iLocation
Location
p497
(dp498
g3
F51.0944158
sg4
F13.7366556
sba(iLocation
Location
p499
(dp500
g3
F51.0794925
sg4
F13.6888695
sba(iLocation
Location
p501
(dp502
g3
F50.993241
sg4
F13.6629502
sba(iLocation
Location
p503
(dp504
g3
F51.0308186
sg4
F13.7898195
sba(iLocation
Location
p505
(dp506
g3
F50.9722706
sg4
F13.786676
sba(iLocation
Location
p507
(dp508
g3
F51.0238015
sg4
F13.6862661
sba(iLocation
Location
p509
(dp510
g3
F51.0330693
sg4
F13.6936182
sba(iLocation
Location
p511
(dp512
g3
F51.0270465
sg4
F13.610364
sba(iLocation
Location
p513
(dp514
g3
F51.0100722
sg4
F13.7734774
sba(iLocation
Location
p515
(dp516
g3
F51.0025584
sg4
F13.8515769
sba(iLocation
Location
p517
(dp518
g3
F51.02981
sg4
F13.8221421
sba(iLocation
Location
p519
(dp520
g3
F51.0323118
sg4
F13.715718
sba(iLocation
Location
p521
(dp522
g3
F51.0137609
sg4
F13.7793376
sba(iLocation
Location
p523
(dp524
g3
F51.022613
sg4
F13.6984329
sba(iLocation
Location
p525
(dp526
g3
F51.0063844
sg4
F13.5935799
sba(iLocation
Location
p527
(dp528
g3
F51.0463213
sg4
F13.820925
sba(iLocation
Location
p529
(dp530
g3
F51.0411719
sg4
F13.7207207
sba(iLocation
Location
p531
(dp532
g3
F51.0067833
sg4
F13.7297532
sba(iLocation
Location
p533
(dp534
g3
F51.0699066
sg4
F13.8955426
sba(iLocation
Location
p535
(dp536
g3
F51.0763297
sg4
F13.8896167
sba(iLocation
Location
p537
(dp538
g3
F51.0112621
sg4
F13.7512335
sba(iLocation
Location
p539
(dp540
g3
F51.0451412
sg4
F13.7344732
sba(iLocation
Location
p541
(dp542
g3
F51.0413093
sg4
F13.7323678
sba(iLocation
Location
p543
(dp544
g3
F51.0081737
sg4
F13.801632
sba(iLocation
Location
p545
(dp546
g3
F50.9981115
sg4
F13.7197147
sba(iLocation
Location
p547
(dp548
g3
F51.0613168
sg4
F13.7224497
sba(iLocation
Location
p549
(dp550
g3
F51.0209426
sg4
F13.7517709
sba(iLocation
Location
p551
(dp552
g3
F51.0610817
sg4
F13.659217
sba(iLocation
Location
p553
(dp554
g3
F51.0343746
sg4
F13.8843655
sba(iLocation
Location
p555
(dp556
g3
F51.0674065
sg4
F13.8833456
sba(iLocation
Location
p557
(dp558
g3
F51.0270442
sg4
F13.8088599
sba(iLocation
Location
p559
(dp560
g3
F51.0180275
sg4
F13.8361086
sba(iLocation
Location
p561
(dp562
g3
F50.9989834
sg4
F13.8811358
sba(iLocation
Location
p563
(dp564
g3
F51.0239831
sg4
F13.8116653
sba(iLocation
Location
p565
(dp566
g3
F51.0499106
sg4
F13.7800807
sba(iLocation
Location
p567
(dp568
g3
F51.0837606
sg4
F13.6977398
sba(iLocation
Location
p569
(dp570
g3
F51.077311
sg4
F13.7196507
sba(iLocation
Location
p571
(dp572
g3
F50.9994693
sg4
F13.8011878
sba(iLocation
Location
p573
(dp574
g3
F51.0452751
sg4
F13.6788644
sba(iLocation
Location
p575
(dp576
g3
F51.0354445
sg4
F13.7226825
sba(iLocation
Location
p577
(dp578
g3
F51.0295211
sg4
F13.8472451
sba(iLocation
Location
p579
(dp580
g3
F50.9873021
sg4
F13.6706405
sba(iLocation
Location
p581
(dp582
g3
F51.0927383
sg4
F13.7214706
sba(iLocation
Location
p583
(dp584
g3
F51.0393673
sg4
F13.7129579
sba(iLocation
Location
p585
(dp586
g3
F51.04076
sg4
F13.5961666
sba(iLocation
Location
p587
(dp588
g3
F51.096198
sg4
F13.7119517
sba(iLocation
Location
p589
(dp590
g3
F51.0228687
sg4
F13.8297119
sba(iLocation
Location
p591
(dp592
g3
F50.9882517
sg4
F13.8427578
sba(iLocation
Location
p593
(dp594
g3
F51.0698065
sg4
F13.621185
sba(iLocation
Location
p595
(dp596
g3
F51.0473664
sg4
F13.7705605
sba(iLocation
Location
p597
(dp598
g3
F51.0202947
sg4
F13.7022755
sba(iLocation
Location
p599
(dp600
g3
F51.0222156
sg4
F13.6951552
sba(iLocation
Location
p601
(dp602
g3
F51.0777623
sg4
F13.7426777
sba(iLocation
Location
p603
(dp604
g3
F51.0422779
sg4
F13.6806163
sba(iLocation
Location
p605
(dp606
g3
F51.0126762
sg4
F13.7554473
sba(iLocation
Location
p607
(dp608
g3
F51.0367095
sg4
F13.7826577
sba(iLocation
Location
p609
(dp610
g3
F50.9940365
sg4
F13.7222794
sba(iLocation
Location
p611
(dp612
g3
F51.0524103
sg4
F13.7336715
sba(iLocation
Location
p613
(dp614
g3
F51.0085908
sg4
F13.8039648
sba(iLocation
Location
p615
(dp616
g3
F51.0759373
sg4
F13.7556952
sba(iLocation
Location
p617
(dp618
g3
F51.0716164
sg4
F13.635667
sba(iLocation
Location
p619
(dp620
g3
F51.0255164
sg4
F13.7471217
sba(iLocation
Location
p621
(dp622
g3
F51.1038588
sg4
F13.8667013
sba(iLocation
Location
p623
(dp624
g3
F51.0273375
sg4
F13.7297189
sba(iLocation
Location
p625
(dp626
g3
F51.0738147
sg4
F13.7294629
sba(iLocation
Location
p627
(dp628
g3
F50.9878661
sg4
F13.790984
sba(iLocation
Location
p629
(dp630
g3
F50.9803474
sg4
F13.8535953
sba(iLocation
Location
p631
(dp632
g3
F51.0573501
sg4
F13.7504828
sba(iLocation
Location
p633
(dp634
g3
F51.0437836
sg4
F13.8074317
sba(iLocation
Location
p635
(dp636
g3
F51.0555439
sg4
F13.6432629
sba(iLocation
Location
p637
(dp638
g3
F51.0831919
sg4
F13.7047593
sba(iLocation
Location
p639
(dp640
g3
F51.0272026
sg4
F13.7412134
sba(iLocation
Location
p641
(dp642
g3
F51.0764111
sg4
F13.7969759
sba(iLocation
Location
p643
(dp644
g3
F51.0836628
sg4
F13.8906498
sba(iLocation
Location
p645
(dp646
g3
F51.0113984
sg4
F13.688844
sba(iLocation
Location
p647
(dp648
g3
F51.076331
sg4
F13.7349365
sba(iLocation
Location
p649
(dp650
g3
F51.0880875
sg4
F13.7416962
sba(iLocation
Location
p651
(dp652
g3
F51.042589
sg4
F13.7227939
sba(iLocation
Location
p653
(dp654
g3
F51.0081444
sg4
F13.7431912
sba(iLocation
Location
p655
(dp656
g3
F51.0332686
sg4
F13.7739639
sba(iLocation
Location
p657
(dp658
g3
F51.0062327
sg4
F13.8054085
sba(iLocation
Location
p659
(dp660
g3
F51.0593722
sg4
F13.7437652
sba(iLocation
Location
p661
(dp662
g3
F51.0759825
sg4
F13.7580191
sba(iLocation
Location
p663
(dp664
g3
F50.993254
sg4
F13.666447
sba(iLocation
Location
p665
(dp666
g3
F51.0983181
sg4
F13.6539861
sba(iLocation
Location
p667
(dp668
g3
F51.0151657
sg4
F13.7479312
sba(iLocation
Location
p669
(dp670
g3
F51.0969921
sg4
F13.7688482
sba(iLocation
Location
p671
(dp672
g3
F51.0723422
sg4
F13.7586394
sba(iLocation
Location
p673
(dp674
g3
F50.9733967
sg4
F13.7591071
sba(iLocation
Location
p675
(dp676
g3
F51.0550808
sg4
F13.8335664
sba(iLocation
Location
p677
(dp678
g3
F51.0760983
sg4
F13.7228498
sba(iLocation
Location
p679
(dp680
g3
F51.0069624
sg4
F13.6827346
sba(iLocation
Location
p681
(dp682
g3
F51.0365219
sg4
F13.815909
sba(iLocation
Location
p683
(dp684
g3
F51.0838104
sg4
F13.6726872
sba(iLocation
Location
p685
(dp686
g3
F51.0192578
sg4
F13.7367797
sba(iLocation
Location
p687
(dp688
g3
F51.0384978
sg4
F13.8322074
sba(iLocation
Location
p689
(dp690
g3
F51.0137692
sg4
F13.824564
sba(iLocation
Location
p691
(dp692
g3
F51.0211533
sg4
F13.7909104
sba(iLocation
Location
p693
(dp694
g3
F51.0135968
sg4
F13.779337
sba(iLocation
Location
p695
(dp696
g3
F51.0630625
sg4
F13.7604586
sba(iLocation
Location
p697
(dp698
g3
F50.9683301
sg4
F13.5922262
sba(iLocation
Location
p699
(dp700
g3
F50.9611584
sg4
F13.7415619
sba(iLocation
Location
p701
(dp702
g3
F51.0667865
sg4
F13.780751
sba(iLocation
Location
p703
(dp704
g3
F51.0082351
sg4
F13.8693761
sba(iLocation
Location
p705
(dp706
g3
F51.09226
sg4
F13.719839
sba(iLocation
Location
p707
(dp708
g3
F51.0702531
sg4
F13.7740912
sba(iLocation
Location
p709
(dp710
g3
F50.9613766
sg4
F13.5868146
sba(iLocation
Location
p711
(dp712
g3
F51.0340344
sg4
F13.6957027
sba(iLocation
Location
p713
(dp714
g3
F51.0604896
sg4
F13.6956517
sba(iLocation
Location
p715
(dp716
g3
F51.0792986
sg4
F13.7769762
sba(iLocation
Location
p717
(dp718
g3
F51.028502
sg4
F13.7592559
sba(iLocation
Location
p719
(dp720
g3
F51.0276544
sg4
F13.7981262
sba(iLocation
Location
p721
(dp722
g3
F51.0324704
sg4
F13.7900343
sba(iLocation
Location
p723
(dp724
g3
F51.050236
sg4
F13.7130279
sba(iLocation
Location
p725
(dp726
g3
F51.0574671
sg4
F13.7510921
sba(iLocation
Location
p727
(dp728
g3
F50.9931851
sg4
F13.7868843
sba(iLocation
Location
p729
(dp730
g3
F51.0233671
sg4
F13.7488232
sba(iLocation
Location
p731
(dp732
g3
F51.0295283
sg4
F13.7238897
sba(iLocation
Location
p733
(dp734
g3
F51.0975123
sg4
F13.6914041
sba(iLocation
Location
p735
(dp736
g3
F51.0627448
sg4
F13.8850404
sba(iLocation
Location
p737
(dp738
g3
F50.990777
sg4
F13.6249221
sba(iLocation
Location
p739
(dp740
g3
F51.089257
sg4
F13.7320434
sba(iLocation
Location
p741
(dp742
g3
F51.078142
sg4
F13.7131803
sba(iLocation
Location
p743
(dp744
g3
F51.0094909
sg4
F13.6604278
sba(iLocation
Location
p745
(dp746
g3
F51.0937262
sg4
F13.6978504
sba(iLocation
Location
p747
(dp748
g3
F51.017279
sg4
F13.7192416
sba(iLocation
Location
p749
(dp750
g3
F51.0311043
sg4
F13.5963807
sba(iLocation
Location
p751
(dp752
g3
F51.0630792
sg4
F13.7515674
sba(iLocation
Location
p753
(dp754
g3
F51.0375312
sg4
F13.7327124
sba(iLocation
Location
p755
(dp756
g3
F51.0231017
sg4
F13.774121
sba(iLocation
Location
p757
(dp758
g3
F51.0540638
sg4
F13.8169196
sba(iLocation
Location
p759
(dp760
g3
F51.0057252
sg4
F13.8262295
sba(iLocation
Location
p761
(dp762
g3
F51.0540166
sg4
F13.8031757
sba(iLocation
Location
p763
(dp764
g3
F51.0952282
sg4
F13.7684588
sba(iLocation
Location
p765
(dp766
g3
F51.0107178
sg4
F13.8177998
sba(iLocation
Location
p767
(dp768
g3
F51.0237442
sg4
F13.8737047
sba(iLocation
Location
p769
(dp770
g3
F51.0365959
sg4
F13.7116195
sba(iLocation
Location
p771
(dp772
g3
F51.0226645
sg4
F13.6995078
sba(iLocation
Location
p773
(dp774
g3
F50.9662946
sg4
F13.8387783
sba(iLocation
Location
p775
(dp776
g3
F51.0624043
sg4
F13.6689548
sba(iLocation
Location
p777
(dp778
g3
F50.9680075
sg4
F13.8768298
sba(iLocation
Location
p779
(dp780
g3
F51.0342323
sg4
F13.8049489
sba(iLocation
Location
p781
(dp782
g3
F51.0771309
sg4
F13.7168314
sba(iLocation
Location
p783
(dp784
g3
F51.0874892
sg4
F13.7209124
sba(iLocation
Location
p785
(dp786
g3
F51.0394885
sg4
F13.8436361
sba(iLocation
Location
p787
(dp788
g3
F51.0532561
sg4
F13.7410567
sba(iLocation
Location
p789
(dp790
g3
F51.0014632
sg4
F13.6116356
sba(iLocation
Location
p791
(dp792
g3
F51.032996
sg4
F13.8170648
sba(iLocation
Location
p793
(dp794
g3
F51.0331923
sg4
F13.8230351
sba(iLocation
Location
p795
(dp796
g3
F51.058565
sg4
F13.7830692
sba(iLocation
Location
p797
(dp798
g3
F51.0868551
sg4
F13.774287
sba(iLocation
Location
p799
(dp800
g3
F51.0290824
sg4
F13.778501
sba(iLocation
Location
p801
(dp802
g3
F51.071971
sg4
F13.730522
sba(iLocation
Location
p803
(dp804
g3
F51.0031916
sg4
F13.6731716
sba(iLocation
Location
p805
(dp806
g3
F51.033546
sg4
F13.8098046
sba(iLocation
Location
p807
(dp808
g3
F51.0464025
sg4
F13.7517491
sba(iLocation
Location
p809
(dp810
g3
F51.0131674
sg4
F13.6999068
sba(iLocation
Location
p811
(dp812
g3
F51.0617967
sg4
F13.7550394
sba(iLocation
Location
p813
(dp814
g3
F51.0408997
sg4
F13.6895231
sba(iLocation
Location
p815
(dp816
g3
F51.0905333
sg4
F13.8322901
sba(iLocation
Location
p817
(dp818
g3
F50.9858334
sg4
F13.5773987
sba(iLocation
Location
p819
(dp820
g3
F51.0193358
sg4
F13.7649335
sba(iLocation
Location
p821
(dp822
g3
F51.0284011
sg4
F13.750985
sba(iLocation
Location
p823
(dp824
g3
F51.0185581
sg4
F13.6620377
sba(iLocation
Location
p825
(dp826
g3
F51.0402531
sg4
F13.6323173
sba(iLocation
Location
p827
(dp828
g3
F51.0476083
sg4
F13.8635406
sba(iLocation
Location
p829
(dp830
g3
F51.0288724
sg4
F13.7508267
sba(iLocation
Location
p831
(dp832
g3
F51.035071
sg4
F13.8086352
sba(iLocation
Location
p833
(dp834
g3
F51.0283642
sg4
F13.7243735
sba(iLocation
Location
p835
(dp836
g3
F51.0649823
sg4
F13.664983
sba(iLocation
Location
p837
(dp838
g3
F50.9641512
sg4
F13.6298994
sba(iLocation
Location
p839
(dp840
g3
F51.031553
sg4
F13.7641693
sba(iLocation
Location
p841
(dp842
g3
F51.0517305
sg4
F13.7391076
sba(iLocation
Location
p843
(dp844
g3
F51.0408005
sg4
F13.7084365
sba(iLocation
Location
p845
(dp846
g3
F51.0111898
sg4
F13.8225827
sba(iLocation
Location
p847
(dp848
g3
F51.0507165
sg4
F13.6632724
sba(iLocation
Location
p849
(dp850
g3
F50.9996742
sg4
F13.8530254
sba(iLocation
Location
p851
(dp852
g3
F51.0750668
sg4
F13.7378965
sba(iLocation
Location
p853
(dp854
g3
F51.0338106
sg4
F13.6316281
sba(iLocation
Location
p855
(dp856
g3
F51.0149628
sg4
F13.7585589
sba(iLocation
Location
p857
(dp858
g3
F50.9807262
sg4
F13.6297467
sba(iLocation
Location
p859
(dp860
g3
F51.0370371
sg4
F13.7779814
sba(iLocation
Location
p861
(dp862
g3
F50.9895588
sg4
F13.6776941
sba(iLocation
Location
p863
(dp864
g3
F51.0281654
sg4
F13.7191854
sba(iLocation
Location
p865
(dp866
g3
F51.0047275
sg4
F13.6669042
sba(iLocation
Location
p867
(dp868
g3
F51.0292502
sg4
F13.7230136
sba(iLocation
Location
p869
(dp870
g3
F51.0060843
sg4
F13.7934777
sba(iLocation
Location
p871
(dp872
g3
F51.0502252
sg4
F13.832348
sba(iLocation
Location
p873
(dp874
g3
F51.0405594
sg4
F13.6254734
sba(iLocation
Location
p875
(dp876
g3
F51.0669672
sg4
F13.7855966
sba(iLocation
Location
p877
(dp878
g3
F51.0690435
sg4
F13.6086235
sba(iLocation
Location
p879
(dp880
g3
F50.9960541
sg4
F13.6521295
sba(iLocation
Location
p881
(dp882
g3
F51.0875748
sg4
F13.7325709
sba(iLocation
Location
p883
(dp884
g3
F50.9893323
sg4
F13.8456189
sba(iLocation
Location
p885
(dp886
g3
F50.9951566
sg4
F13.7892039
sba(iLocation
Location
p887
(dp888
g3
F51.0677172
sg4
F13.6888361
sba(iLocation
Location
p889
(dp890
g3
F50.9995668
sg4
F13.7231298
sba(iLocation
Location
p891
(dp892
g3
F51.0285175
sg4
F13.6458687
sba(iLocation
Location
p893
(dp894
g3
F51.1010813
sg4
F13.7627236
sba(iLocation
Location
p895
(dp896
g3
F51.0386185
sg4
F13.7403857
sba(iLocation
Location
p897
(dp898
g3
F51.0094974
sg4
F13.7840463
sba(iLocation
Location
p899
(dp900
g3
F51.0158997
sg4
F13.6997047
sba(iLocation
Location
p901
(dp902
g3
F51.0048181
sg4
F13.8380836
sba(iLocation
Location
p903
(dp904
g3
F50.9913149
sg4
F13.6458506
sba(iLocation
Location
p905
(dp906
g3
F51.0179804
sg4
F13.7042294
sba(iLocation
Location
p907
(dp908
g3
F51.0395281
sg4
F13.7765561
sba(iLocation
Location
p909
(dp910
g3
F51.0182677
sg4
F13.5882577
sba(iLocation
Location
p911
(dp912
g3
F51.0004695
sg4
F13.8338341
sba(iLocation
Location
p913
(dp914
g3
F51.0671433
sg4
F13.689517
sba(iLocation
Location
p915
(dp916
g3
F51.0733966
sg4
F13.7591383
sba(iLocation
Location
p917
(dp918
g3
F51.011325
sg4
F13.819707
sba(iLocation
Location
p919
(dp920
g3
F51.0532918
sg4
F13.7061852
sba(iLocation
Location
p921
(dp922
g3
F51.0689814
sg4
F13.7306704
sba(iLocation
Location
p923
(dp924
g3
F51.0154685
sg4
F13.7573461
sba(iLocation
Location
p925
(dp926
g3
F51.0886833
sg4
F13.7034869
sba(iLocation
Location
p927
(dp928
g3
F51.0390698
sg4
F13.7908781
sba(iLocation
Location
p929
(dp930
g3
F50.9785866
sg4
F13.8533558
sba(iLocation
Location
p931
(dp932
g3
F51.0521448
sg4
F13.7065749
sba(iLocation
Location
p933
(dp934
g3
F51.0188888
sg4
F13.7613463
sba(iLocation
Location
p935
(dp936
g3
F51.0124279
sg4
F13.6904185
sba(iLocation
Location
p937
(dp938
g3
F51.0687467
sg4
F13.7592067
sba(iLocation
Location
p939
(dp940
g3
F50.991836
sg4
F13.7157638
sba(iLocation
Location
p941
(dp942
g3
F51.0069683
sg4
F13.690411
sba(iLocation
Location
p943
(dp944
g3
F51.0428762
sg4
F13.6647466
sba(iLocation
Location
p945
(dp946
g3
F51.0510119
sg4
F13.7224461
sba(iLocation
Location
p947
(dp948
g3
F51.0255221
sg4
F13.7233823
sba(iLocation
Location
p949
(dp950
g3
F51.0993791
sg4
F13.6779336
sba(iLocation
Location
p951
(dp952
g3
F51.028672
sg4
F13.6535696
sba(iLocation
Location
p953
(dp954
g3
F51.0711409
sg4
F13.7613008
sba(iLocation
Location
p955
(dp956
g3
F51.0182275
sg4
F13.8263455
sba(iLocation
Location
p957
(dp958
g3
F51.0738258
sg4
F13.7530699
sba(iLocation
Location
p959
(dp960
g3
F51.0044541
sg4
F13.7681925
sba(iLocation
Location
p961
(dp962
g3
F51.0904579
sg4
F13.6211576
sba(iLocation
Location
p963
(dp964
g3
F51.0033706
sg4
F13.8186374
sba(iLocation
Location
p965
(dp966
g3
F51.1002064
sg4
F13.6948961
sba(iLocation
Location
p967
(dp968
g3
F50.9938968
sg4
F13.8301056
sba(iLocation
Location
p969
(dp970
g3
F51.0423881
sg4
F13.6674745
sba(iLocation
Location
p971
(dp972
g3
F50.9823306
sg4
F13.584087
sba(iLocation
Location
p973
(dp974
g3
F51.0959222
sg4
F13.7194559
sba(iLocation
Location
p975
(dp976
g3
F51.0462748
sg4
F13.7445931
sba(iLocation
Location
p977
(dp978
g3
F51.03882
sg4
F13.7288009
sba(iLocation
Location
p979
(dp980
g3
F51.0284924
sg4
F13.7314376
sba(iLocation
Location
p981
(dp982
g3
F51.0808431
sg4
F13.7249179
sba(iLocation
Location
p983
(dp984
g3
F51.0203882
sg4
F13.7675008
sba(iLocation
Location
p985
(dp986
g3
F51.0751282
sg4
F13.7338296
sba(iLocation
Location
p987
(dp988
g3
F50.9847592
sg4
F13.8593101
sba(iLocation
Location
p989
(dp990
g3
F51.0617787
sg4
F13.6722284
sba(iLocation
Location
p991
(dp992
g3
F50.9849409
sg4
F13.6353539
sba(iLocation
Location
p993
(dp994
g3
F51.0277544
sg4
F13.7328048
sba(iLocation
Location
p995
(dp996
g3
F51.039626
sg4
F13.7091267
sba(iLocation
Location
p997
(dp998
g3
F51.0546944
sg4
F13.7793531
sba(iLocation
Location
p999
(dp1000
g3
F51.0400862
sg4
F13.7400312
sba(iLocation
Location
p1001
(dp1002
g3
F50.9685218
sg4
F13.7099816
sba(iLocation
Location
p1003
(dp1004
g3
F51.0434006
sg4
F13.784158
sba(iLocation
Location
p1005
(dp1006
g3
F51.0508455
sg4
F13.6632544
sba(iLocation
Location
p1007
(dp1008
g3
F51.0273907
sg4
F13.7700183
sba(iLocation
Location
p1009
(dp1010
g3
F51.0080255
sg4
F13.831248
sba(iLocation
Location
p1011
(dp1012
g3
F51.0849047
sg4
F13.7275651
sba(iLocation
Location
p1013
(dp1014
g3
F51.0614089
sg4
F13.8147807
sba(iLocation
Location
p1015
(dp1016
g3
F51.0220941
sg4
F13.7340148
sba(iLocation
Location
p1017
(dp1018
g3
F51.056093
sg4
F13.787195
sba(iLocation
Location
p1019
(dp1020
g3
F51.0306536
sg4
F13.5963277
sba(iLocation
Location
p1021
(dp1022
g3
F51.0695561
sg4
F13.7644775
sba(iLocation
Location
p1023
(dp1024
g3
F51.0606021
sg4
F13.8505086
sba(iLocation
Location
p1025
(dp1026
g3
F51.0240167
sg4
F13.7592015
sba(iLocation
Location
p1027
(dp1028
g3
F51.030697
sg4
F13.7068142
sba(iLocation
Location
p1029
(dp1030
g3
F51.0769886
sg4
F13.887228
sba(iLocation
Location
p1031
(dp1032
g3
F51.0211626
sg4
F13.8068335
sba(iLocation
Location
p1033
(dp1034
g3
F51.066782
sg4
F13.5861376
sba(iLocation
Location
p1035
(dp1036
g3
F51.0747738
sg4
F13.6056368
sba(iLocation
Location
p1037
(dp1038
g3
F50.9917433
sg4
F13.7821605
sba(iLocation
Location
p1039
(dp1040
g3
F50.9954308
sg4
F13.6438946
sba(iLocation
Location
p1041
(dp1042
g3
F51.0629363
sg4
F13.8360098
sba(iLocation
Location
p1043
(dp1044
g3
F50.9855986
sg4
F13.8113936
sba(iLocation
Location
p1045
(dp1046
g3
F51.0147593
sg4
F13.6766011
sba(iLocation
Location
p1047
(dp1048
g3
F51.0194093
sg4
F13.7974506
sba(iLocation
Location
p1049
(dp1050
g3
F50.9740117
sg4
F13.8619212
sba(iLocation
Location
p1051
(dp1052
g3
F51.0451212
sg4
F13.7877231
sba(iLocation
Location
p1053
(dp1054
g3
F51.044631
sg4
F13.7372294
sba(iLocation
Location
p1055
(dp1056
g3
F51.0569224
sg4
F13.7319852
sba(iLocation
Location
p1057
(dp1058
g3
F51.0655958
sg4
F13.7345072
sba(iLocation
Location
p1059
(dp1060
g3
F51.0802304
sg4
F13.750706
sba(iLocation
Location
p1061
(dp1062
g3
F51.0589743
sg4
F13.740715
sba(iLocation
Location
p1063
(dp1064
g3
F51.0246939
sg4
F13.6178172
sba(iLocation
Location
p1065
(dp1066
g3
F51.0715984
sg4
F13.7929606
sba(iLocation
Location
p1067
(dp1068
g3
F51.0156172
sg4
F13.8342912
sba(iLocation
Location
p1069
(dp1070
g3
F51.0295985
sg4
F13.8186899
sba(iLocation
Location
p1071
(dp1072
g3
F50.9953187
sg4
F13.8248352
sba(iLocation
Location
p1073
(dp1074
g3
F51.0134907
sg4
F13.7690396
sba(iLocation
Location
p1075
(dp1076
g3
F50.9804652
sg4
F13.8699374
sba(iLocation
Location
p1077
(dp1078
g3
F51.0212586
sg4
F13.786717
sba(iLocation
Location
p1079
(dp1080
g3
F51.0628696
sg4
F13.7429354
sba(iLocation
Location
p1081
(dp1082
g3
F51.033047
sg4
F13.7309257
sba(iLocation
Location
p1083
(dp1084
g3
F51.061995
sg4
F13.7756785
sba(iLocation
Location
p1085
(dp1086
g3
F51.0283595
sg4
F13.7975796
sba(iLocation
Location
p1087
(dp1088
g3
F51.0899119
sg4
F13.8204935
sba(iLocation
Location
p1089
(dp1090
g3
F51.013335
sg4
F13.7913966
sba(iLocation
Location
p1091
(dp1092
g3
F50.9747
sg4
F13.8617243
sba(iLocation
Location
p1093
(dp1094
g3
F51.0248921
sg4
F13.8164478
sba(iLocation
Location
p1095
(dp1096
g3
F50.9936183
sg4
F13.8822879
sba(iLocation
Location
p1097
(dp1098
g3
F51.0367153
sg4
F13.7617518
sba(iLocation
Location
p1099
(dp1100
g3
F51.0622628
sg4
F13.7284016
sba(iLocation
Location
p1101
(dp1102
g3
F51.0034115
sg4
F13.6215341
sba(iLocation
Location
p1103
(dp1104
g3
F51.0272603
sg4
F13.6510773
sba(iLocation
Location
p1105
(dp1106
g3
F51.079321
sg4
F13.686471
sba(iLocation
Location
p1107
(dp1108
g3
F51.0402943
sg4
F13.7218134
sba(iLocation
Location
p1109
(dp1110
g3
F51.0452649
sg4
F13.7239345
sba(iLocation
Location
p1111
(dp1112
g3
F51.063172
sg4
F13.8787802
sba(iLocation
Location
p1113
(dp1114
g3
F51.0768009
sg4
F13.6994849
sba(iLocation
Location
p1115
(dp1116
g3
F51.0382044
sg4
F13.8417161
sba(iLocation
Location
p1117
(dp1118
g3
F51.0702462
sg4
F13.698743
sba(iLocation
Location
p1119
(dp1120
g3
F51.0939667
sg4
F13.7087984
sba(iLocation
Location
p1121
(dp1122
g3
F51.0126905
sg4
F13.7989463
sba(iLocation
Location
p1123
(dp1124
g3
F50.9631565
sg4
F13.7977502
sba(iLocation
Location
p1125
(dp1126
g3
F51.0635892
sg4
F13.7434521
sba(iLocation
Location
p1127
(dp1128
g3
F51.0924079
sg4
F13.6827865
sba(iLocation
Location
p1129
(dp1130
g3
F50.9880197
sg4
F13.5776104
sba(iLocation
Location
p1131
(dp1132
g3
F51.020376
sg4
F13.6974566
sba(iLocation
Location
p1133
(dp1134
g3
F51.021947
sg4
F13.830792
sba(iLocation
Location
p1135
(dp1136
g3
F51.0402397
sg4
F13.664599
sba(iLocation
Location
p1137
(dp1138
g3
F50.9949167
sg4
F13.8125209
sba(iLocation
Location
p1139
(dp1140
g3
F51.0382527
sg4
F13.7445332
sba(iLocation
Location
p1141
(dp1142
g3
F51.0420255
sg4
F13.7684409
sba(iLocation
Location
p1143
(dp1144
g3
F51.0272158
sg4
F13.7750536
sba(iLocation
Location
p1145
(dp1146
g3
F51.0329026
sg4
F13.7792663
sba(iLocation
Location
p1147
(dp1148
g3
F51.0281836
sg4
F13.5819964
sba(iLocation
Location
p1149
(dp1150
g3
F51.0430467
sg4
F13.7859697
sba(iLocation
Location
p1151
(dp1152
g3
F51.0875501
sg4
F13.703478
sba(iLocation
Location
p1153
(dp1154
g3
F51.053939
sg4
F13.6662175
sba(iLocation
Location
p1155
(dp1156
g3
F50.9939643
sg4
F13.7663573
sba(iLocation
Location
p1157
(dp1158
g3
F51.0452456
sg4
F13.6185052
sba(iLocation
Location
p1159
(dp1160
g3
F51.0177343
sg4
F13.7804773
sba(iLocation
Location
p1161
(dp1162
g3
F51.0154533
sg4
F13.6993313
sba(iLocation
Location
p1163
(dp1164
g3
F51.0304102
sg4
F13.8206919
sba(iLocation
Location
p1165
(dp1166
g3
F50.9690061
sg4
F13.7186583
sba(iLocation
Location
p1167
(dp1168
g3
F51.0458982
sg4
F13.6941727
sba(iLocation
Location
p1169
(dp1170
g3
F51.0762435
sg4
F13.7330724
sba(iLocation
Location
p1171
(dp1172
g3
F50.9818209
sg4
F13.8634788
sba(iLocation
Location
p1173
(dp1174
g3
F51.0623845
sg4
F13.68148
sba(iLocation
Location
p1175
(dp1176
g3
F50.9762354
sg4
F13.8103484
sba(iLocation
Location
p1177
(dp1178
g3
F50.9937049
sg4
F13.6301992
sba(iLocation
Location
p1179
(dp1180
g3
F51.044939
sg4
F13.7846879
sba(iLocation
Location
p1181
(dp1182
g3
F51.0950634
sg4
F13.642533
sba(iLocation
Location
p1183
(dp1184
g3
F51.0517387
sg4
F13.6218285
sba(iLocation
Location
p1185
(dp1186
g3
F51.0942765
sg4
F13.5804381
sba(iLocation
Location
p1187
(dp1188
g3
F51.029173
sg4
F13.6890093
sba(iLocation
Location
p1189
(dp1190
g3
F51.0818228
sg4
F13.6991253
sba(iLocation
Location
p1191
(dp1192
g3
F51.0082166
sg4
F13.6716822
sba(iLocation
Location
p1193
(dp1194
g3
F51.0532096
sg4
F13.7454109
sba(iLocation
Location
p1195
(dp1196
g3
F51.0817018
sg4
F13.749578
sba(iLocation
Location
p1197
(dp1198
g3
F51.0594027
sg4
F13.6788126
sba(iLocation
Location
p1199
(dp1200
g3
F51.083502
sg4
F13.6927419
sba(iLocation
Location
p1201
(dp1202
g3
F51.0546621
sg4
F13.7839971
sba(iLocation
Location
p1203
(dp1204
g3
F51.0393197
sg4
F13.6516545
sba(iLocation
Location
p1205
(dp1206
g3
F51.0691122
sg4
F13.6756292
sba(iLocation
Location
p1207
(dp1208
g3
F51.0790065
sg4
F13.8940388
sba(iLocation
Location
p1209
(dp1210
g3
F51.0934782
sg4
F13.7192195
sba(iLocation
Location
p1211
(dp1212
g3
F51.0552063
sg4
F13.7362036
sba(iLocation
Location
p1213
(dp1214
g3
F51.0363215
sg4
F13.7143705
sba(iLocation
Location
p1215
(dp1216
g3
F51.0956273
sg4
F13.8422114
sba(iLocation
Location
p1217
(dp1218
g3
F51.1013616
sg4
F13.711524
sba(iLocation
Location
p1219
(dp1220
g3
F51.0072886
sg4
F13.8519498
sba(iLocation
Location
p1221
(dp1222
g3
F50.9898207
sg4
F13.8544525
sba(iLocation
Location
p1223
(dp1224
g3
F51.0700887
sg4
F13.7623984
sba(iLocation
Location
p1225
(dp1226
g3
F50.9928789
sg4
F13.6626873
sba(iLocation
Location
p1227
(dp1228
g3
F51.0175618
sg4
F13.7165489
sba(iLocation
Location
p1229
(dp1230
g3
F51.0120891
sg4
F13.8480713
sba(iLocation
Location
p1231
(dp1232
g3
F51.0455313
sg4
F13.7372183
sba(iLocation
Location
p1233
(dp1234
g3
F51.0298022
sg4
F13.586426
sba(iLocation
Location
p1235
(dp1236
g3
F51.0631617
sg4
F13.7430039
sba(iLocation
Location
p1237
(dp1238
g3
F51.0646522
sg4
F13.8854327
sba(iLocation
Location
p1239
(dp1240
g3
F51.0299719
sg4
F13.7155356
sba(iLocation
Location
p1241
(dp1242
g3
F51.0595463
sg4
F13.668083
sba(iLocation
Location
p1243
(dp1244
g3
F51.00925
sg4
F13.7969312
sba(iLocation
Location
p1245
(dp1246
g3
F51.0286079
sg4
F13.745611
sba(iLocation
Location
p1247
(dp1248
g3
F51.0527332
sg4
F13.7739302
sba(iLocation
Location
p1249
(dp1250
g3
F51.0716493
sg4
F13.7432634
sba(iLocation
Location
p1251
(dp1252
g3
F51.0169075
sg4
F13.6310545
sba(iLocation
Location
p1253
(dp1254
g3
F51.0711407
sg4
F13.7472571
sba(iLocation
Location
p1255
(dp1256
g3
F51.070252
sg4
F13.7727443
sba(iLocation
Location
p1257
(dp1258
g3
F51.0693949
sg4
F13.6360727
sba(iLocation
Location
p1259
(dp1260
g3
F51.0131513
sg4
F13.699623
sba(iLocation
Location
p1261
(dp1262
g3
F51.0769757
sg4
F13.7759947
sba(iLocation
Location
p1263
(dp1264
g3
F51.0812775
sg4
F13.7200695
sba(iLocation
Location
p1265
(dp1266
g3
F51.043572
sg4
F13.7524442
sba(iLocation
Location
p1267
(dp1268
g3
F51.0254513
sg4
F13.6114
sba(iLocation
Location
p1269
(dp1270
g3
F51.0747704
sg4
F13.7563326
sba(iLocation
Location
p1271
(dp1272
g3
F51.0122681
sg4
F13.6520093
sba(iLocation
Location
p1273
(dp1274
g3
F51.0405924
sg4
F13.6255772
sba(iLocation
Location
p1275
(dp1276
g3
F51.0576247
sg4
F13.7249946
sba(iLocation
Location
p1277
(dp1278
g3
F51.0496283
sg4
F13.7438661
sba(iLocation
Location
p1279
(dp1280
g3
F51.0186784
sg4
F13.7221252
sba(iLocation
Location
p1281
(dp1282
g3
F51.0053025
sg4
F13.8067766
sba(iLocation
Location
p1283
(dp1284
g3
F51.0165213
sg4
F13.7813233
sba(iLocation
Location
p1285
(dp1286
g3
F51.0260524
sg4
F13.8861648
sba(iLocation
Location
p1287
(dp1288
g3
F51.0218484
sg4
F13.5945402
sba(iLocation
Location
p1289
(dp1290
g3
F51.0090711
sg4
F13.8114177
sba(iLocation
Location
p1291
(dp1292
g3
F51.0005901
sg4
F13.7926104
sba(iLocation
Location
p1293
(dp1294
g3
F51.0047796
sg4
F13.7312587
sba(iLocation
Location
p1295
(dp1296
g3
F50.9915237
sg4
F13.6598588
sba(iLocation
Location
p1297
(dp1298
g3
F51.0990995
sg4
F13.7345318
sba(iLocation
Location
p1299
(dp1300
g3
F51.077059
sg4
F13.6961172
sba(iLocation
Location
p1301
(dp1302
g3
F51.0241298
sg4
F13.8823293
sba(iLocation
Location
p1303
(dp1304
g3
F51.0048143
sg4
F13.8860519
sba(iLocation
Location
p1305
(dp1306
g3
F50.9867532
sg4
F13.579275
sba(iLocation
Location
p1307
(dp1308
g3
F51.0622592
sg4
F13.8038385
sba(iLocation
Location
p1309
(dp1310
g3
F51.0813035
sg4
F13.7328498
sba(iLocation
Location
p1311
(dp1312
g3
F50.9654684
sg4
F13.7116252
sba(iLocation
Location
p1313
(dp1314
g3
F51.0933286
sg4
F13.7810958
sba(iLocation
Location
p1315
(dp1316
g3
F51.0103621
sg4
F13.8174842
sba(iLocation
Location
p1317
(dp1318
g3
F50.9958321
sg4
F13.8259407
sba(iLocation
Location
p1319
(dp1320
g3
F51.0724826
sg4
F13.7653318
sba(iLocation
Location
p1321
(dp1322
g3
F50.9877875
sg4
F13.6092958
sba(iLocation
Location
p1323
(dp1324
g3
F51.0541982
sg4
F13.8136013
sba(iLocation
Location
p1325
(dp1326
g3
F50.9986653
sg4
F13.8280584
sba(iLocation
Location
p1327
(dp1328
g3
F51.0298428
sg4
F13.8194033
sba(iLocation
Location
p1329
(dp1330
g3
F50.999265
sg4
F13.6485773
sba(iLocation
Location
p1331
(dp1332
g3
F51.0563766
sg4
F13.6613772
sba(iLocation
Location
p1333
(dp1334
g3
F51.0685483
sg4
F13.7760453
sba(iLocation
Location
p1335
(dp1336
g3
F51.0467965
sg4
F13.6905209
sba(iLocation
Location
p1337
(dp1338
g3
F51.0125055
sg4
F13.6631281
sba(iLocation
Location
p1339
(dp1340
g3
F51.0319212
sg4
F13.8433141
sba(iLocation
Location
p1341
(dp1342
g3
F51.0632943
sg4
F13.7628405
sba(iLocation
Location
p1343
(dp1344
g3
F51.0118461
sg4
F13.804141
sba(iLocation
Location
p1345
(dp1346
g3
F51.0327488
sg4
F13.7892266
sba(iLocation
Location
p1347
(dp1348
g3
F51.0303909
sg4
F13.7811868
sba(iLocation
Location
p1349
(dp1350
g3
F50.9967922
sg4
F13.7085135
sba(iLocation
Location
p1351
(dp1352
g3
F51.024937
sg4
F13.7235426
sba(iLocation
Location
p1353
(dp1354
g3
F51.0295904
sg4
F13.7176857
sba(iLocation
Location
p1355
(dp1356
g3
F51.0903531
sg4
F13.6932234
sba(iLocation
Location
p1357
(dp1358
g3
F51.0472806
sg4
F13.7310539
sba(iLocation
Location
p1359
(dp1360
g3
F51.0209477
sg4
F13.7410656
sba(iLocation
Location
p1361
(dp1362
g3
F51.032241
sg4
F13.5912448
sba(iLocation
Location
p1363
(dp1364
g3
F51.0099054
sg4
F13.8168976
sba(iLocation
Location
p1365
(dp1366
g3
F51.0561237
sg4
F13.722416
sba(iLocation
Location
p1367
(dp1368
g3
F50.9919357
sg4
F13.6477684
sba(iLocation
Location
p1369
(dp1370
g3
F51.0307983
sg4
F13.762533
sba(iLocation
Location
p1371
(dp1372
g3
F50.990042
sg4
F13.7085763
sba(iLocation
Location
p1373
(dp1374
g3
F51.0911748
sg4
F13.7673459
sba(iLocation
Location
p1375
(dp1376
g3
F51.0419267
sg4
F13.6765871
sba(iLocation
Location
p1377
(dp1378
g3
F51.0455237
sg4
F13.6800565
sba(iLocation
Location
p1379
(dp1380
g3
F51.0268677
sg4
F13.7327005
sba(iLocation
Location
p1381
(dp1382
g3
F51.0721178
sg4
F13.6779973
sba(iLocation
Location
p1383
(dp1384
g3
F51.0668292
sg4
F13.7602813
sba(iLocation
Location
p1385
(dp1386
g3
F50.9982187
sg4
F13.6037052
sba(iLocation
Location
p1387
(dp1388
g3
F51.0342459
sg4
F13.7199365
sba(iLocation
Location
p1389
(dp1390
g3
F51.045421
sg4
F13.8124176
sba(iLocation
Location
p1391
(dp1392
g3
F51.0726816
sg4
F13.7423368
sba(iLocation
Location
p1393
(dp1394
g3
F50.9916953
sg4
F13.8829908
sba(iLocation
Location
p1395
(dp1396
g3
F50.9978303
sg4
F13.6043497
sba(iLocation
Location
p1397
(dp1398
g3
F51.0484526
sg4
F13.717954
sba(iLocation
Location
p1399
(dp1400
g3
F51.0547297
sg4
F13.7650873
sba(iLocation
Location
p1401
(dp1402
g3
F51.0280301
sg4
F13.7401899
sba(iLocation
Location
p1403
(dp1404
g3
F51.0226571
sg4
F13.8127021
sba(iLocation
Location
p1405
(dp1406
g3
F51.0549456
sg4
F13.7800346
sba(iLocation
Location
p1407
(dp1408
g3
F50.9641434
sg4
F13.6691604
sba(iLocation
Location
p1409
(dp1410
g3
F51.0614898
sg4
F13.8364886
sba(iLocation
Location
p1411
(dp1412
g3
F51.0478681
sg4
F13.7920758
sba(iLocation
Location
p1413
(dp1414
g3
F51.0269354
sg4
F13.7746942
sba(iLocation
Location
p1415
(dp1416
g3
F51.0448589
sg4
F13.7340218
sba(iLocation
Location
p1417
(dp1418
g3
F51.0347824
sg4
F13.6866227
sba(iLocation
Location
p1419
(dp1420
g3
F51.0651196
sg4
F13.6725579
sba(iLocation
Location
p1421
(dp1422
g3
F51.0164509
sg4
F13.7293916
sba(iLocation
Location
p1423
(dp1424
g3
F50.9912216
sg4
F13.710071
sba(iLocation
Location
p1425
(dp1426
g3
F51.0775374
sg4
F13.6953638
sba(iLocation
Location
p1427
(dp1428
g3
F51.004807
sg4
F13.8048726
sba(iLocation
Location
p1429
(dp1430
g3
F51.0599389
sg4
F13.6719106
sba(iLocation
Location
p1431
(dp1432
g3
F51.0264416
sg4
F13.7023355
sba(iLocation
Location
p1433
(dp1434
g3
F51.0915829
sg4
F13.6859501
sba(iLocation
Location
p1435
(dp1436
g3
F51.0306065
sg4
F13.7479505
sba(iLocation
Location
p1437
(dp1438
g3
F51.0666678
sg4
F13.6355248
sba(iLocation
Location
p1439
(dp1440
g3
F51.0545991
sg4
F13.682617
sba(iLocation
Location
p1441
(dp1442
g3
F51.0395875
sg4
F13.68707
sba(iLocation
Location
p1443
(dp1444
g3
F51.0857187
sg4
F13.6940398
sba(iLocation
Location
p1445
(dp1446
g3
F51.0376792
sg4
F13.6731491
sba(iLocation
Location
p1447
(dp1448
g3
F51.030359
sg4
F13.7121501
sba(iLocation
Location
p1449
(dp1450
g3
F51.0569172
sg4
F13.7315957
sba(iLocation
Location
p1451
(dp1452
g3
F51.0290043
sg4
F13.814659
sba(iLocation
Location
p1453
(dp1454
g3
F51.1017895
sg4
F13.6641199
sba(iLocation
Location
p1455
(dp1456
g3
F51.0863516
sg4
F13.7261978
sba(iLocation
Location
p1457
(dp1458
g3
F51.029525
sg4
F13.7235179
sba(iLocation
Location
p1459
(dp1460
g3
F51.0287098
sg4
F13.7254198
sba(iLocation
Location
p1461
(dp1462
g3
F51.0447005
sg4
F13.7272123
sba(iLocation
Location
p1463
(dp1464
g3
F51.0765579
sg4
F13.7810948
sba(iLocation
Location
p1465
(dp1466
g3
F51.0366094
sg4
F13.7824421
sba(iLocation
Location
p1467
(dp1468
g3
F51.0639151
sg4
F13.7387106
sba(iLocation
Location
p1469
(dp1470
g3
F51.0621255
sg4
F13.5826869
sba(iLocation
Location
p1471
(dp1472
g3
F50.9952761
sg4
F13.7634611
sba(iLocation
Location
p1473
(dp1474
g3
F51.0095194
sg4
F13.8269972
sba(iLocation
Location
p1475
(dp1476
g3
F50.9808428
sg4
F13.8601506
sba(iLocation
Location
p1477
(dp1478
g3
F51.0377251
sg4
F13.8553594
sba(iLocation
Location
p1479
(dp1480
g3
F51.0285692
sg4
F13.7313445
sba(iLocation
Location
p1481
(dp1482
g3
F51.0719568
sg4
F13.7570371
sba(iLocation
Location
p1483
(dp1484
g3
F51.0298307
sg4
F13.756652
sba(iLocation
Location
p1485
(dp1486
g3
F51.033554
sg4
F13.8249384
sba(iLocation
Location
p1487
(dp1488
g3
F51.0420412
sg4
F13.6732442
sba(iLocation
Location
p1489
(dp1490
g3
F50.9992161
sg4
F13.6533844
sba(iLocation
Location
p1491
(dp1492
g3
F51.0558573
sg4
F13.7846037
sba(iLocation
Location
p1493
(dp1494
g3
F51.0822182
sg4
F13.8963537
sba(iLocation
Location
p1495
(dp1496
g3
F51.0089409
sg4
F13.7889421
sba(iLocation
Location
p1497
(dp1498
g3
F51.0943543
sg4
F13.6038357
sba(iLocation
Location
p1499
(dp1500
g3
F51.0801907
sg4
F13.7324941
sba(iLocation
Location
p1501
(dp1502
g3
F51.0120989
sg4
F13.6889514
sba(iLocation
Location
p1503
(dp1504
g3
F51.0537685
sg4
F13.6530373
sba(iLocation
Location
p1505
(dp1506
g3
F51.0564682
sg4
F13.72355
sba(iLocation
Location
p1507
(dp1508
g3
F51.0252555
sg4
F13.7589864
sba(iLocation
Location
p1509
(dp1510
g3
F51.0990001
sg4
F13.7166326
sba(iLocation
Location
p1511
(dp1512
g3
F51.0280333
sg4
F13.7985552
sba(iLocation
Location
p1513
(dp1514
g3
F51.0345875
sg4
F13.7862762
sba(iLocation
Location
p1515
(dp1516
g3
F51.0220227
sg4
F13.803627
sba(iLocation
Location
p1517
(dp1518
g3
F51.0632509
sg4
F13.7970298
sba(iLocation
Location
p1519
(dp1520
g3
F51.0633771
sg4
F13.7490349
sba(iLocation
Location
p1521
(dp1522
g3
F51.0693086
sg4
F13.7198085
sba(iLocation
Location
p1523
(dp1524
g3
F51.0389377
sg4
F13.8005429
sba(iLocation
Location
p1525
(dp1526
g3
F51.0944737
sg4
F13.7115817
sba(iLocation
Location
p1527
(dp1528
g3
F51.05838
sg4
F13.7811683
sba(iLocation
Location
p1529
(dp1530
g3
F51.032769
sg4
F13.5902599
sba(iLocation
Location
p1531
(dp1532
g3
F51.0115754
sg4
F13.6622575
sba(iLocation
Location
p1533
(dp1534
g3
F51.0306156
sg4
F13.7279932
sba(iLocation
Location
p1535
(dp1536
g3
F51.0492148
sg4
F13.6886854
sba(iLocation
Location
p1537
(dp1538
g3
F51.0554318
sg4
F13.685075
sba(iLocation
Location
p1539
(dp1540
g3
F51.0606862
sg4
F13.715684
sba(iLocation
Location
p1541
(dp1542
g3
F51.0640808
sg4
F13.6519428
sba(iLocation
Location
p1543
(dp1544
g3
F51.0726712
sg4
F13.6907123
sba(iLocation
Location
p1545
(dp1546
g3
F50.9778383
sg4
F13.6227079
sba(iLocation
Location
p1547
(dp1548
g3
F50.969114
sg4
F13.6543415
sba(iLocation
Location
p1549
(dp1550
g3
F51.0466155
sg4
F13.7099421
sba(iLocation
Location
p1551
(dp1552
g3
F50.9944692
sg4
F13.8010525
sba(iLocation
Location
p1553
(dp1554
g3
F51.0889881
sg4
F13.7320433
sba(iLocation
Location
p1555
(dp1556
g3
F51.0302781
sg4
F13.7697528
sba(iLocation
Location
p1557
(dp1558
g3
F50.9665422
sg4
F13.8793442
sba(iLocation
Location
p1559
(dp1560
g3
F51.0305235
sg4
F13.6742807
sba(iLocation
Location
p1561
(dp1562
g3
F51.0632475
sg4
F13.7992271
sba(iLocation
Location
p1563
(dp1564
g3
F50.9835354
sg4
F13.8140857
sba(iLocation
Location
p1565
(dp1566
g3
F51.0389113
sg4
F13.7788203
sba(iLocation
Location
p1567
(dp1568
g3
F51.0779779
sg4
F13.7325047
sba(iLocation
Location
p1569
(dp1570
g3
F51.0222375
sg4
F13.8506876
sba(iLocation
Location
p1571
(dp1572
g3
F51.0170351
sg4
F13.7096278
sba(iLocation
Location
p1573
(dp1574
g3
F51.0481843
sg4
F13.8642576
sba(iLocation
Location
p1575
(dp1576
g3
F51.0821495
sg4
F13.6823157
sba(iLocation
Location
p1577
(dp1578
g3
F50.9959468
sg4
F13.7995588
sba(iLocation
Location
p1579
(dp1580
g3
F51.0348569
sg4
F13.7821722
sba(iLocation
Location
p1581
(dp1582
g3
F51.0404886
sg4
F13.7405227
sba(iLocation
Location
p1583
(dp1584
g3
F51.0204118
sg4
F13.8139046
sba(iLocation
Location
p1585
(dp1586
g3
F51.0750231
sg4
F13.6896641
sba(iLocation
Location
p1587
(dp1588
g3
F51.0550302
sg4
F13.758052
sba(iLocation
Location
p1589
(dp1590
g3
F50.9942687
sg4
F13.7249359
sba(iLocation
Location
p1591
(dp1592
g3
F51.0068081
sg4
F13.8036595
sba(iLocation
Location
p1593
(dp1594
g3
F51.077059
sg4
F13.6961172
sba(iLocation
Location
p1595
(dp1596
g3
F51.0402449
sg4
F13.663915
sba(iLocation
Location
p1597
(dp1598
g3
F51.0396613
sg4
F13.8440379
sba(iLocation
Location
p1599
(dp1600
g3
F51.0840437
sg4
F13.7282846
sba(iLocation
Location
p1601
(dp1602
g3
F51.0208744
sg4
F13.7003313
sba(iLocation
Location
p1603
(dp1604
g3
F51.0288904
sg4
F13.7738464
sba(iLocation
Location
p1605
(dp1606
g3
F51.0497111
sg4
F13.7438253
sba(iLocation
Location
p1607
(dp1608
g3
F50.9965603
sg4
F13.7074798
sba(iLocation
Location
p1609
(dp1610
g3
F51.0618198
sg4
F13.6828448
sba(iLocation
Location
p1611
(dp1612
g3
F51.0339822
sg4
F13.7187618
sba(iLocation
Location
p1613
(dp1614
g3
F50.9623965
sg4
F13.765423
sba(iLocation
Location
p1615
(dp1616
g3
F51.0708887
sg4
F13.7604431
sba(iLocation
Location
p1617
(dp1618
g3
F51.094512
sg4
F13.6034906
sba(iLocation
Location
p1619
(dp1620
g3
F51.0021956
sg4
F13.6523106
sba(iLocation
Location
p1621
(dp1622
g3
F51.062378
sg4
F13.7555988
sba(iLocation
Location
p1623
(dp1624
g3
F51.0272361
sg4
F13.7302916
sba(iLocation
Location
p1625
(dp1626
g3
F51.0553944
sg4
F13.7752125
sba(iLocation
Location
p1627
(dp1628
g3
F51.0213475
sg4
F13.7510409
sba(iLocation
Location
p1629
(dp1630
g3
F51.0169232
sg4
F13.7818538
sba(iLocation
Location
p1631
(dp1632
g3
F51.0332626
sg4
F13.7493424
sba(iLocation
Location
p1633
(dp1634
g3
F51.0332514
sg4
F13.7419391
sba(iLocation
Location
p1635
(dp1636
g3
F51.0096359
sg4
F13.7838708
sba(iLocation
Location
p1637
(dp1638
g3
F51.0912329
sg4
F13.7888402
sba(iLocation
Location
p1639
(dp1640
g3
F50.9912967
sg4
F13.6458907
sba(iLocation
Location
p1641
(dp1642
g3
F51.0387446
sg4
F13.7859094
sba(iLocation
Location
p1643
(dp1644
g3
F51.018435
sg4
F13.892337
sba(iLocation
Location
p1645
(dp1646
g3
F51.0364948
sg4
F13.6217694
sba(iLocation
Location
p1647
(dp1648
g3
F51.0417173
sg4
F13.7207719
sba(iLocation
Location
p1649
(dp1650
g3
F51.0048132
sg4
F13.8035952
sba(iLocation
Location
p1651
(dp1652
g3
F51.0434153
sg4
F13.6820207
sba(iLocation
Location
p1653
(dp1654
g3
F51.054011
sg4
F13.81076
sba(iLocation
Location
p1655
(dp1656
g3
F51.0586831
sg4
F13.7191141
sba(iLocation
Location
p1657
(dp1658
g3
F51.0017749
sg4
F13.7893206
sba(iLocation
Location
p1659
(dp1660
g3
F51.0102541
sg4
F13.7003671
sba(iLocation
Location
p1661
(dp1662
g3
F51.046409
sg4
F13.8712258
sba(iLocation
Location
p1663
(dp1664
g3
F51.0149834
sg4
F13.7382944
sba(iLocation
Location
p1665
(dp1666
g3
F51.0096758
sg4
F13.8520492
sba(iLocation
Location
p1667
(dp1668
g3
F50.9818193
sg4
F13.8632996
sba(iLocation
Location
p1669
(dp1670
g3
F50.9757688
sg4
F13.5830442
sba(iLocation
Location
p1671
(dp1672
g3
F51.0524869
sg4
F13.8123054
sba(iLocation
Location
p1673
(dp1674
g3
F51.0945549
sg4
F13.7078676
sba(iLocation
Location
p1675
(dp1676
g3
F51.0751956
sg4
F13.7724621
sba(iLocation
Location
p1677
(dp1678
g3
F51.0246478
sg4
F13.7597777
sba(iLocation
Location
p1679
(dp1680
g3
F51.0412387
sg4
F13.7729642
sba(iLocation
Location
p1681
(dp1682
g3
F51.0496816
sg4
F13.7551768
sba(iLocation
Location
p1683
(dp1684
g3
F51.0481981
sg4
F13.7436899
sba(iLocation
Location
p1685
(dp1686
g3
F51.0503226
sg4
F13.7801199
sba(iLocation
Location
p1687
(dp1688
g3
F51.073005
sg4
F13.6679237
sba(iLocation
Location
p1689
(dp1690
g3
F51.014849
sg4
F13.8305823
sba(iLocation
Location
p1691
(dp1692
g3
F51.0495725
sg4
F13.82509
sba(iLocation
Location
p1693
(dp1694
g3
F51.0199993
sg4
F13.8338518
sba(iLocation
Location
p1695
(dp1696
g3
F51.077655
sg4
F13.758111
sba(iLocation
Location
p1697
(dp1698
g3
F50.9732718
sg4
F13.6612059
sba(iLocation
Location
p1699
(dp1700
g3
F51.085539
sg4
F13.7201838
sba(iLocation
Location
p1701
(dp1702
g3
F51.0572605
sg4
F13.7456807
sba(iLocation
Location
p1703
(dp1704
g3
F51.0307535
sg4
F13.7014559
sba(iLocation
Location
p1705
(dp1706
g3
F51.0313171
sg4
F13.8168595
sba(iLocation
Location
p1707
(dp1708
g3
F51.0657168
sg4
F13.741688
sba(iLocation
Location
p1709
(dp1710
g3
F51.057291
sg4
F13.590067
sba(iLocation
Location
p1711
(dp1712
g3
F51.0526953
sg4
F13.6652682
sba(iLocation
Location
p1713
(dp1714
g3
F51.043063
sg4
F13.6295272
sba(iLocation
Location
p1715
(dp1716
g3
F51.0336503
sg4
F13.7297884
sba(iLocation
Location
p1717
(dp1718
g3
F51.0415655
sg4
F13.7700268
sba(iLocation
Location
p1719
(dp1720
g3
F51.027897
sg4
F13.8677751
sba(iLocation
Location
p1721
(dp1722
g3
F51.0637641
sg4
F13.7338632
sba(iLocation
Location
p1723
(dp1724
g3
F50.9898089
sg4
F13.6790531
sba(iLocation
Location
p1725
(dp1726
g3
F51.0440715
sg4
F13.7715169
sba(iLocation
Location
p1727
(dp1728
g3
F51.042517
sg4
F13.7880231
sba(iLocation
Location
p1729
(dp1730
g3
F51.0978797
sg4
F13.6049316
sba(iLocation
Location
p1731
(dp1732
g3
F51.0576669
sg4
F13.7404733
sba(iLocation
Location
p1733
(dp1734
g3
F51.0109836
sg4
F13.8725506
sba(iLocation
Location
p1735
(dp1736
g3
F51.0594156
sg4
F13.7789056
sba(iLocation
Location
p1737
(dp1738
g3
F51.060466
sg4
F13.7393773
sba(iLocation
Location
p1739
(dp1740
g3
F51.0355788
sg4
F13.6763243
sba(iLocation
Location
p1741
(dp1742
g3
F51.0274758
sg4
F13.7256108
sba(iLocation
Location
p1743
(dp1744
g3
F51.0191762
sg4
F13.7367701
sba(iLocation
Location
p1745
(dp1746
g3
F51.0740563
sg4
F13.7430146
sba(iLocation
Location
p1747
(dp1748
g3
F51.0330298
sg4
F13.7629437
sba(iLocation
Location
p1749
(dp1750
g3
F51.0530983
sg4
F13.7798262
sba(iLocation
Location
p1751
(dp1752
g3
F51.063053
sg4
F13.8168942
sba(iLocation
Location
p1753
(dp1754
g3
F50.9870881
sg4
F13.816571
sba(iLocation
Location
p1755
(dp1756
g3
F51.0348538
sg4
F13.6847119
sba(iLocation
Location
p1757
(dp1758
g3
F50.9764345
sg4
F13.630947
sba(iLocation
Location
p1759
(dp1760
g3
F51.010929
sg4
F13.8138942
sba(iLocation
Location
p1761
(dp1762
g3
F51.0554379
sg4
F13.7582701
sba(iLocation
Location
p1763
(dp1764
g3
F50.9762864
sg4
F13.8583936
sba(iLocation
Location
p1765
(dp1766
g3
F51.0143655
sg4
F13.6462717
sba(iLocation
Location
p1767
(dp1768
g3
F51.0893226
sg4
F13.739277
sba(iLocation
Location
p1769
(dp1770
g3
F50.9865129
sg4
F13.8588586
sba(iLocation
Location
p1771
(dp1772
g3
F51.0463884
sg4
F13.6860445
sba(iLocation
Location
p1773
(dp1774
g3
F51.0132506
sg4
F13.7424543
sba(iLocation
Location
p1775
(dp1776
g3
F50.9991299
sg4
F13.6534096
sba(iLocation
Location
p1777
(dp1778
g3
F51.0116122
sg4
F13.6830403
sba(iLocation
Location
p1779
(dp1780
g3
F51.0689821
sg4
F13.7564364
sba(iLocation
Location
p1781
(dp1782
g3
F51.0264197
sg4
F13.7430543
sba(iLocation
Location
p1783
(dp1784
g3
F51.0309361
sg4
F13.7560445
sba(iLocation
Location
p1785
(dp1786
g3
F50.9663444
sg4
F13.6406937
sba(iLocation
Location
p1787
(dp1788
g3
F51.0976053
sg4
F13.7711801
sba(iLocation
Location
p1789
(dp1790
g3
F51.0745476
sg4
F13.7438271
sba(iLocation
Location
p1791
(dp1792
g3
F51.0102482
sg4
F13.7032902
sba(iLocation
Location
p1793
(dp1794
g3
F51.031959
sg4
F13.8026252
sba(iLocation
Location
p1795
(dp1796
g3
F51.0071781
sg4
F13.7967136
sba(iLocation
Location
p1797
(dp1798
g3
F51.0372614
sg4
F13.7445516
sba(iLocation
Location
p1799
(dp1800
g3
F51.0339241
sg4
F13.594396
sba(iLocation
Location
p1801
(dp1802
g3
F51.0112913
sg4
F13.8679076
sba(iLocation
Location
p1803
(dp1804
g3
F51.0000256
sg4
F13.7912656
sba(iLocation
Location
p1805
(dp1806
g3
F51.0496637
sg4
F13.8027125
sba(iLocation
Location
p1807
(dp1808
g3
F51.0753375
sg4
F13.8049896
sba(iLocation
Location
p1809
(dp1810
g3
F51.0165324
sg4
F13.7813333
sba(iLocation
Location
p1811
(dp1812
g3
F51.091251
sg4
F13.6369242
sba(iLocation
Location
p1813
(dp1814
g3
F51.000407
sg4
F13.8005943
sba(iLocation
Location
p1815
(dp1816
g3
F51.0276913
sg4
F13.7583622
sba(iLocation
Location
p1817
(dp1818
g3
F51.0514551
sg4
F13.715045
sba(iLocation
Location
p1819
(dp1820
g3
F51.021392
sg4
F13.7503696
sba(iLocation
Location
p1821
(dp1822
g3
F51.0378166
sg4
F13.7952767
sba(iLocation
Location
p1823
(dp1824
g3
F51.0198275
sg4
F13.8114216
sba(iLocation
Location
p1825
(dp1826
g3
F51.0841923
sg4
F13.6978487
sba(iLocation
Location
p1827
(dp1828
g3
F51.0529528
sg4
F13.864646
sba(iLocation
Location
p1829
(dp1830
g3
F51.0626738
sg4
F13.7365895
sba(iLocation
Location
p1831
(dp1832
g3
F51.0068124
sg4
F13.6590232
sba(iLocation
Location
p1833
(dp1834
g3
F50.9597719
sg4
F13.8132625
sba(iLocation
Location
p1835
(dp1836
g3
F51.0438999
sg4
F13.7651202
sba(iLocation
Location
p1837
(dp1838
g3
F51.0138389
sg4
F13.7748245
sba(iLocation
Location
p1839
(dp1840
g3
F51.0384377
sg4
F13.8466331
sba(iLocation
Location
p1841
(dp1842
g3
F51.0595894
sg4
F13.7522588
sba(iLocation
Location
p1843
(dp1844
g3
F51.0671313
sg4
F13.5964146
sba(iLocation
Location
p1845
(dp1846
g3
F51.0017897
sg4
F13.8358694
sba(iLocation
Location
p1847
(dp1848
g3
F50.9773571
sg4
F13.6320173
sba(iLocation
Location
p1849
(dp1850
g3
F51.0072086
sg4
F13.8029907
sba(iLocation
Location
p1851
(dp1852
g3
F51.0390484
sg4
F13.6309383
sba(iLocation
Location
p1853
(dp1854
g3
F51.0386879
sg4
F13.6352314
sba(iLocation
Location
p1855
(dp1856
g3
F51.0608086
sg4
F13.7154168
sba(iLocation
Location
p1857
(dp1858
g3
F51.02888
sg4
F13.7570433
sba(iLocation
Location
p1859
(dp1860
g3
F51.024629
sg4
F13.7150993
sba(iLocation
Location
p1861
(dp1862
g3
F51.0524659
sg4
F13.6657391
sba(iLocation
Location
p1863
(dp1864
g3
F51.0964239
sg4
F13.7730473
sba(iLocation
Location
p1865
(dp1866
g3
F51.0533945
sg4
F13.731339
sba(iLocation
Location
p1867
(dp1868
g3
F51.0833964
sg4
F13.6039374
sba(iLocation
Location
p1869
(dp1870
g3
F51.0552084
sg4
F13.7568691
sba(iLocation
Location
p1871
(dp1872
g3
F51.0347632
sg4
F13.7890219
sba(iLocation
Location
p1873
(dp1874
g3
F51.0049291
sg4
F13.7882932
sba(iLocation
Location
p1875
(dp1876
g3
F51.0108797
sg4
F13.6674383
sba(iLocation
Location
p1877
(dp1878
g3
F50.971951
sg4
F13.6858172
sba(iLocation
Location
p1879
(dp1880
g3
F50.9796805
sg4
F13.870359
sba(iLocation
Location
p1881
(dp1882
g3
F51.0557999
sg4
F13.8199037
sba(iLocation
Location
p1883
(dp1884
g3
F51.0262031
sg4
F13.8136476
sba(iLocation
Location
p1885
(dp1886
g3
F51.0166014
sg4
F13.6391989
sba(iLocation
Location
p1887
(dp1888
g3
F51.0297998
sg4
F13.8150163
sba(iLocation
Location
p1889
(dp1890
g3
F51.0720062
sg4
F13.7302573
sba(iLocation
Location
p1891
(dp1892
g3
F51.0409806
sg4
F13.6965749
sba(iLocation
Location
p1893
(dp1894
g3
F51.0336211
sg4
F13.8204426
sba(iLocation
Location
p1895
(dp1896
g3
F51.0661977
sg4
F13.656484
sba(iLocation
Location
p1897
(dp1898
g3
F51.0575786
sg4
F13.7432503
sba(iLocation
Location
p1899
(dp1900
g3
F51.0519161
sg4
F13.7487828
sba(iLocation
Location
p1901
(dp1902
g3
F51.0752028
sg4
F13.7550057
sba(iLocation
Location
p1903
(dp1904
g3
F51.0467054
sg4
F13.7294006
sba(iLocation
Location
p1905
(dp1906
g3
F50.9806611
sg4
F13.8898044
sba(iLocation
Location
p1907
(dp1908
g3
F51.0205971
sg4
F13.734581
sba(iLocation
Location
p1909
(dp1910
g3
F51.0381494
sg4
F13.6281114
sba(iLocation
Location
p1911
(dp1912
g3
F51.0673923
sg4
F13.7648059
sba(iLocation
Location
p1913
(dp1914
g3
F51.0689673
sg4
F13.7703516
sba(iLocation
Location
p1915
(dp1916
g3
F51.0512561
sg4
F13.6708941
sba(iLocation
Location
p1917
(dp1918
g3
F51.0650674
sg4
F13.8722483
sba(iLocation
Location
p1919
(dp1920
g3
F51.0051
sg4
F13.6320672
sba(iLocation
Location
p1921
(dp1922
g3
F51.0718021
sg4
F13.7481615
sba(iLocation
Location
p1923
(dp1924
g3
F51.0250801
sg4
F13.736668
sba(iLocation
Location
p1925
(dp1926
g3
F51.0171536
sg4
F13.794133
sba(iLocation
Location
p1927
(dp1928
g3
F51.0566904
sg4
F13.7457733
sba(iLocation
Location
p1929
(dp1930
g3
F51.0205509
sg4
F13.7298931
sba(iLocation
Location
p1931
(dp1932
g3
F51.0044291
sg4
F13.8040926
sba(iLocation
Location
p1933
(dp1934
g3
F51.0293797
sg4
F13.8023767
sba(iLocation
Location
p1935
(dp1936
g3
F51.0257245
sg4
F13.7552247
sba(iLocation
Location
p1937
(dp1938
g3
F51.0164692
sg4
F13.7757729
sba(iLocation
Location
p1939
(dp1940
g3
F51.036019
sg4
F13.6801063
sba(iLocation
Location
p1941
(dp1942
g3
F51.052923
sg4
F13.7962587
sba(iLocation
Location
p1943
(dp1944
g3
F51.0881827
sg4
F13.7750456
sba(iLocation
Location
p1945
(dp1946
g3
F51.0146028
sg4
F13.6334368
sba(iLocation
Location
p1947
(dp1948
g3
F51.0215758
sg4
F13.7100176
sba(iLocation
Location
p1949
(dp1950
g3
F51.0619936
sg4
F13.7449143
sba(iLocation
Location
p1951
(dp1952
g3
F51.0307584
sg4
F13.5875685
sba(iLocation
Location
p1953
(dp1954
g3
F50.9650062
sg4
F13.5828322
sba(iLocation
Location
p1955
(dp1956
g3
F51.0942424
sg4
F13.6665646
sba(iLocation
Location
p1957
(dp1958
g3
F51.064723
sg4
F13.6387389
sba(iLocation
Location
p1959
(dp1960
g3
F50.9749103
sg4
F13.6212908
sba(iLocation
Location
p1961
(dp1962
g3
F51.0270642
sg4
F13.6469505
sba(iLocation
Location
p1963
(dp1964
g3
F50.9824254
sg4
F13.813094
sba(iLocation
Location
p1965
(dp1966
g3
F51.0996669
sg4
F13.8042218
sba(iLocation
Location
p1967
(dp1968
g3
F50.9719946
sg4
F13.8400072
sba(iLocation
Location
p1969
(dp1970
g3
F50.9788639
sg4
F13.8895887
sba(iLocation
Location
p1971
(dp1972
g3
F51.0115642
sg4
F13.7985222
sba(iLocation
Location
p1973
(dp1974
g3
F51.0939667
sg4
F13.8424197
sba(iLocation
Location
p1975
(dp1976
g3
F51.0283464
sg4
F13.7283474
sba(iLocation
Location
p1977
(dp1978
g3
F51.0249671
sg4
F13.7030821
sba(iLocation
Location
p1979
(dp1980
g3
F51.0933994
sg4
F13.8322983
sba(iLocation
Location
p1981
(dp1982
g3
F51.0686022
sg4
F13.7564581
sba(iLocation
Location
p1983
(dp1984
g3
F51.0100055
sg4
F13.8695662
sba(iLocation
Location
p1985
(dp1986
g3
F51.0916227
sg4
F13.7085241
sba(iLocation
Location
p1987
(dp1988
g3
F51.0297772
sg4
F13.8362311
sba(iLocation
Location
p1989
(dp1990
g3
F51.0971515
sg4
F13.6350466
sba(iLocation
Location
p1991
(dp1992
g3
F50.959583
sg4
F13.6337083
sba(iLocation
Location
p1993
(dp1994
g3
F51.0335512
sg4
F13.7569449
sba.