(lp0
(iLocation
Location
p1
(dp2
S'_y'
p3
cdecimal
Decimal
p4
(S'13.6584474'
p5
tp6
Rp7
sS'_x'
p8
g4
(S'51.0514977'
p9
tp10
Rp11
sba(iLocation
Location
p12
(dp13
g3
g4
(S'13.6199704'
p14
tp15
Rp16
sg8
g4
(S'50.9834989'
p17
tp18
Rp19
sba(iLocation
Location
p20
(dp21
g3
g4
(S'13.6975164'
p22
tp23
Rp24
sg8
g4
(S'50.9917354'
p25
tp26
Rp27
sba(iLocation
Location
p28
(dp29
g3
g4
(S'13.8434901'
p30
tp31
Rp32
sg8
g4
(S'51.0401458'
p33
tp34
Rp35
sba(iLocation
Location
p36
(dp37
g3
g4
(S'13.7579054'
p38
tp39
Rp40
sg8
g4
(S'51.0337419'
p41
tp42
Rp43
sba(iLocation
Location
p44
(dp45
g3
g4
(S'13.7314511'
p46
tp47
Rp48
sg8
g4
(S'51.0808755'
p49
tp50
Rp51
sba(iLocation
Location
p52
(dp53
g3
g4
(S'13.6587831'
p54
tp55
Rp56
sg8
g4
(S'50.9945711'
p57
tp58
Rp59
sba(iLocation
Location
p60
(dp61
g3
g4
(S'13.7905077'
p62
tp63
Rp64
sg8
g4
(S'50.9962337'
p65
tp66
Rp67
sba(iLocation
Location
p68
(dp69
g3
g4
(S'13.7427664'
p70
tp71
Rp72
sg8
g4
(S'51.0594395'
p73
tp74
Rp75
sba(iLocation
Location
p76
(dp77
g3
g4
(S'13.6597796'
p78
tp79
Rp80
sg8
g4
(S'51.0305956'
p81
tp82
Rp83
sba(iLocation
Location
p84
(dp85
g3
g4
(S'13.6610614'
p86
tp87
Rp88
sg8
g4
(S'50.9792941'
p89
tp90
Rp91
sba(iLocation
Location
p92
(dp93
g3
g4
(S'13.5860341'
p94
tp95
Rp96
sg8
g4
(S'50.9824858'
p97
tp98
Rp99
sba(iLocation
Location
p100
(dp101
g3
g4
(S'13.7709214'
p102
tp103
Rp104
sg8
g4
(S'51.0459921'
p105
tp106
Rp107
sba(iLocation
Location
p108
(dp109
g3
g4
(S'13.6132004'
p110
tp111
Rp112
sg8
g4
(S'51.1017024'
p113
tp114
Rp115
sba(iLocation
Location
p116
(dp117
g3
g4
(S'13.8271366'
p118
tp119
Rp120
sg8
g4
(S'50.9665917'
p121
tp122
Rp123
sba(iLocation
Location
p124
(dp125
g3
g4
(S'13.8928270'
p126
tp127
Rp128
sg8
g4
(S'50.9600067'
p129
tp130
Rp131
sba(iLocation
Location
p132
(dp133
g3
g4
(S'13.7891282'
p134
tp135
Rp136
sg8
g4
(S'51.0303906'
p137
tp138
Rp139
sba(iLocation
Location
p140
(dp141
g3
g4
(S'13.7301510'
p142
tp143
Rp144
sg8
g4
(S'51.0362469'
p145
tp146
Rp147
sba(iLocation
Location
p148
(dp149
g3
g4
(S'13.7785978'
p150
tp151
Rp152
sg8
g4
(S'51.0584776'
p153
tp154
Rp155
sba(iLocation
Location
p156
(dp157
g3
g4
(S'13.7336833'
p158
tp159
Rp160
sg8
g4
(S'51.0491446'
p161
tp162
Rp163
sba(iLocation
Location
p164
(dp165
g3
g4
(S'13.6684726'
p166
tp167
Rp168
sg8
g4
(S'51.0031160'
p169
tp170
Rp171
sba(iLocation
Location
p172
(dp173
g3
g4
(S'13.7170958'
p174
tp175
Rp176
sg8
g4
(S'51.0215813'
p177
tp178
Rp179
sba(iLocation
Location
p180
(dp181
g3
g4
(S'13.6501761'
p182
tp183
Rp184
sg8
g4
(S'50.9948351'
p185
tp186
Rp187
sba(iLocation
Location
p188
(dp189
g3
g4
(S'13.8297573'
p190
tp191
Rp192
sg8
g4
(S'51.0445517'
p193
tp194
Rp195
sba(iLocation
Location
p196
(dp197
g3
g4
(S'13.7385522'
p198
tp199
Rp200
sg8
g4
(S'51.0696303'
p201
tp202
Rp203
sba(iLocation
Location
p204
(dp205
g3
g4
(S'13.7751891'
p206
tp207
Rp208
sg8
g4
(S'51.0395297'
p209
tp210
Rp211
sba(iLocation
Location
p212
(dp213
g3
g4
(S'13.7712519'
p214
tp215
Rp216
sg8
g4
(S'51.0464442'
p217
tp218
Rp219
sba(iLocation
Location
p220
(dp221
g3
g4
(S'13.7177733'
p222
tp223
Rp224
sg8
g4
(S'51.0530840'
p225
tp226
Rp227
sba(iLocation
Location
p228
(dp229
g3
g4
(S'13.7566442'
p230
tp231
Rp232
sg8
g4
(S'51.0617868'
p233
tp234
Rp235
sba(iLocation
Location
p236
(dp237
g3
g4
(S'13.6337918'
p238
tp239
Rp240
sg8
g4
(S'51.0399084'
p241
tp242
Rp243
sba(iLocation
Location
p244
(dp245
g3
g4
(S'13.7377769'
p246
tp247
Rp248
sg8
g4
(S'51.0700576'
p249
tp250
Rp251
sba(iLocation
Location
p252
(dp253
g3
g4
(S'13.7290137'
p254
tp255
Rp256
sg8
g4
(S'51.0460561'
p257
tp258
Rp259
sba(iLocation
Location
p260
(dp261
g3
g4
(S'13.7499331'
p262
tp263
Rp264
sg8
g4
(S'51.0749014'
p265
tp266
Rp267
sba(iLocation
Location
p268
(dp269
g3
g4
(S'13.7398463'
p270
tp271
Rp272
sg8
g4
(S'51.0583391'
p273
tp274
Rp275
sba(iLocation
Location
p276
(dp277
g3
g4
(S'13.7010420'
p278
tp279
Rp280
sg8
g4
(S'51.0100056'
p281
tp282
Rp283
sba(iLocation
Location
p284
(dp285
g3
g4
(S'13.6430707'
p286
tp287
Rp288
sg8
g4
(S'51.0867244'
p289
tp290
Rp291
sba(iLocation
Location
p292
(dp293
g3
g4
(S'13.8457419'
p294
tp295
Rp296
sg8
g4
(S'51.0304742'
p297
tp298
Rp299
sba(iLocation
Location
p300
(dp301
g3
g4
(S'13.6016837'
p302
tp303
Rp304
sg8
g4
(S'51.0350359'
p305
tp306
Rp307
sba(iLocation
Location
p308
(dp309
g3
g4
(S'13.8502589'
p310
tp311
Rp312
sg8
g4
(S'51.0844586'
p313
tp314
Rp315
sba(iLocation
Location
p316
(dp317
g3
g4
(S'13.6385487'
p318
tp319
Rp320
sg8
g4
(S'50.9865268'
p321
tp322
Rp323
sba(iLocation
Location
p324
(dp325
g3
g4
(S'13.6826712'
p326
tp327
Rp328
sg8
g4
(S'51.0618441'
p329
tp330
Rp331
sba(iLocation
Location
p332
(dp333
g3
g4
(S'13.7108525'
p334
tp335
Rp336
sg8
g4
(S'51.0590458'
p337
tp338
Rp339
sba(iLocation
Location
p340
(dp341
g3
g4
(S'13.8600088'
p342
tp343
Rp344
sg8
g4
(S'50.9709552'
p345
tp346
Rp347
sba(iLocation
Location
p348
(dp349
g3
g4
(S'13.8160888'
p350
tp351
Rp352
sg8
g4
(S'51.0072777'
p353
tp354
Rp355
sba(iLocation
Location
p356
(dp357
g3
g4
(S'13.7634831'
p358
tp359
Rp360
sg8
g4
(S'51.0627712'
p361
tp362
Rp363
sba(iLocation
Location
p364
(dp365
g3
g4
(S'13.6895432'
p366
tp367
Rp368
sg8
g4
(S'51.0578647'
p369
tp370
Rp371
sba(iLocation
Location
p372
(dp373
g3
g4
(S'13.8045842'
p374
tp375
Rp376
sg8
g4
(S'51.0247715'
p377
tp378
Rp379
sba(iLocation
Location
p380
(dp381
g3
g4
(S'13.7576557'
p382
tp383
Rp384
sg8
g4
(S'51.0345594'
p385
tp386
Rp387
sba(iLocation
Location
p388
(dp389
g3
g4
(S'13.7835132'
p390
tp391
Rp392
sg8
g4
(S'51.0344731'
p393
tp394
Rp395
sba(iLocation
Location
p396
(dp397
g3
g4
(S'13.7677904'
p398
tp399
Rp400
sg8
g4
(S'51.0157080'
p401
tp402
Rp403
sba(iLocation
Location
p404
(dp405
g3
g4
(S'13.6585561'
p406
tp407
Rp408
sg8
g4
(S'51.0062080'
p409
tp410
Rp411
sba(iLocation
Location
p412
(dp413
g3
g4
(S'13.7221480'
p414
tp415
Rp416
sg8
g4
(S'51.0774748'
p417
tp418
Rp419
sba(iLocation
Location
p420
(dp421
g3
g4
(S'13.7109161'
p422
tp423
Rp424
sg8
g4
(S'51.0189314'
p425
tp426
Rp427
sba(iLocation
Location
p428
(dp429
g3
g4
(S'13.6287640'
p430
tp431
Rp432
sg8
g4
(S'50.9825392'
p433
tp434
Rp435
sba(iLocation
Location
p436
(dp437
g3
g4
(S'13.7535540'
p438
tp439
Rp440
sg8
g4
(S'51.0745184'
p441
tp442
Rp443
sba(iLocation
Location
p444
(dp445
g3
g4
(S'13.7195917'
p446
tp447
Rp448
sg8
g4
(S'51.0300779'
p449
tp450
Rp451
sba(iLocation
Location
p452
(dp453
g3
g4
(S'13.7259086'
p454
tp455
Rp456
sg8
g4
(S'51.0309525'
p457
tp458
Rp459
sba(iLocation
Location
p460
(dp461
g3
g4
(S'13.8035558'
p462
tp463
Rp464
sg8
g4
(S'51.0653608'
p465
tp466
Rp467
sba(iLocation
Location
p468
(dp469
g3
g4
(S'13.7595192'
p470
tp471
Rp472
sg8
g4
(S'51.0107729'
p473
tp474
Rp475
sba(iLocation
Location
p476
(dp477
g3
g4
(S'13.6730111'
p478
tp479
Rp480
sg8
g4
(S'51.0658928'
p481
tp482
Rp483
sba(iLocation
Location
p484
(dp485
g3
g4
(S'13.8640254'
p486
tp487
Rp488
sg8
g4
(S'50.9695201'
p489
tp490
Rp491
sba(iLocation
Location
p492
(dp493
g3
g4
(S'13.7235258'
p494
tp495
Rp496
sg8
g4
(S'51.0397782'
p497
tp498
Rp499
sba(iLocation
Location
p500
(dp501
g3
g4
(S'13.7716706'
p502
tp503
Rp504
sg8
g4
(S'51.0712544'
p505
tp506
Rp507
sba(iLocation
Location
p508
(dp509
g3
g4
(S'13.7499678'
p510
tp511
Rp512
sg8
g4
(S'51.0766448'
p513
tp514
Rp515
sba(iLocation
Location
p516
(dp517
g3
g4
(S'13.6215006'
p518
tp519
Rp520
sg8
g4
(S'51.0245841'
p521
tp522
Rp523
sba(iLocation
Location
p524
(dp525
g3
g4
(S'13.7526931'
p526
tp527
Rp528
sg8
g4
(S'51.0313038'
p529
tp530
Rp531
sba(iLocation
Location
p532
(dp533
g3
g4
(S'13.7775274'
p534
tp535
Rp536
sg8
g4
(S'51.0789239'
p537
tp538
Rp539
sba(iLocation
Location
p540
(dp541
g3
g4
(S'13.6291173'
p542
tp543
Rp544
sg8
g4
(S'51.0194033'
p545
tp546
Rp547
sba(iLocation
Location
p548
(dp549
g3
g4
(S'13.7429002'
p550
tp551
Rp552
sg8
g4
(S'51.0470242'
p553
tp554
Rp555
sba(iLocation
Location
p556
(dp557
g3
g4
(S'13.7830553'
p558
tp559
Rp560
sg8
g4
(S'51.0074227'
p561
tp562
Rp563
sba(iLocation
Location
p564
(dp565
g3
g4
(S'13.7856757'
p566
tp567
Rp568
sg8
g4
(S'50.9745110'
p569
tp570
Rp571
sba(iLocation
Location
p572
(dp573
g3
g4
(S'13.6378328'
p574
tp575
Rp576
sg8
g4
(S'51.0187427'
p577
tp578
Rp579
sba(iLocation
Location
p580
(dp581
g3
g4
(S'13.8666487'
p582
tp583
Rp584
sg8
g4
(S'51.0924143'
p585
tp586
Rp587
sba(iLocation
Location
p588
(dp589
g3
g4
(S'13.7681889'
p590
tp591
Rp592
sg8
g4
(S'51.0161003'
p593
tp594
Rp595
sba(iLocation
Location
p596
(dp597
g3
g4
(S'13.7789547'
p598
tp599
Rp600
sg8
g4
(S'51.0689821'
p601
tp602
Rp603
sba(iLocation
Location
p604
(dp605
g3
g4
(S'13.8187884'
p606
tp607
Rp608
sg8
g4
(S'51.0138953'
p609
tp610
Rp611
sba(iLocation
Location
p612
(dp613
g3
g4
(S'13.5982494'
p614
tp615
Rp616
sg8
g4
(S'51.0348586'
p617
tp618
Rp619
sba(iLocation
Location
p620
(dp621
g3
g4
(S'13.6476420'
p622
tp623
Rp624
sg8
g4
(S'51.0285061'
p625
tp626
Rp627
sba(iLocation
Location
p628
(dp629
g3
g4
(S'13.7050106'
p630
tp631
Rp632
sg8
g4
(S'51.0392356'
p633
tp634
Rp635
sba(iLocation
Location
p636
(dp637
g3
g4
(S'13.5911212'
p638
tp639
Rp640
sg8
g4
(S'51.0996811'
p641
tp642
Rp643
sba(iLocation
Location
p644
(dp645
g3
g4
(S'13.8113853'
p646
tp647
Rp648
sg8
g4
(S'51.0539605'
p649
tp650
Rp651
sba(iLocation
Location
p652
(dp653
g3
g4
(S'13.7086941'
p654
tp655
Rp656
sg8
g4
(S'51.0900805'
p657
tp658
Rp659
sba(iLocation
Location
p660
(dp661
g3
g4
(S'13.7146718'
p662
tp663
Rp664
sg8
g4
(S'51.0548474'
p665
tp666
Rp667
sba(iLocation
Location
p668
(dp669
g3
g4
(S'13.6984691'
p670
tp671
Rp672
sg8
g4
(S'51.0040841'
p673
tp674
Rp675
sba(iLocation
Location
p676
(dp677
g3
g4
(S'13.6360355'
p678
tp679
Rp680
sg8
g4
(S'50.9743453'
p681
tp682
Rp683
sba(iLocation
Location
p684
(dp685
g3
g4
(S'13.8131453'
p686
tp687
Rp688
sg8
g4
(S'50.9959755'
p689
tp690
Rp691
sba(iLocation
Location
p692
(dp693
g3
g4
(S'13.8581055'
p694
tp695
Rp696
sg8
g4
(S'50.9996798'
p697
tp698
Rp699
sba(iLocation
Location
p700
(dp701
g3
g4
(S'13.8884309'
p702
tp703
Rp704
sg8
g4
(S'51.0881928'
p705
tp706
Rp707
sba(iLocation
Location
p708
(dp709
g3
g4
(S'13.7875087'
p710
tp711
Rp712
sg8
g4
(S'51.0348318'
p713
tp714
Rp715
sba(iLocation
Location
p716
(dp717
g3
g4
(S'13.6252962'
p718
tp719
Rp720
sg8
g4
(S'50.9829753'
p721
tp722
Rp723
sba(iLocation
Location
p724
(dp725
g3
g4
(S'13.7059111'
p726
tp727
Rp728
sg8
g4
(S'51.0425630'
p729
tp730
Rp731
sba(iLocation
Location
p732
(dp733
g3
g4
(S'13.7161142'
p734
tp735
Rp736
sg8
g4
(S'51.0240876'
p737
tp738
Rp739
sba(iLocation
Location
p740
(dp741
g3
g4
(S'13.6476231'
p742
tp743
Rp744
sg8
g4
(S'51.0405175'
p745
tp746
Rp747
sba(iLocation
Location
p748
(dp749
g3
g4
(S'13.6689592'
p750
tp751
Rp752
sg8
g4
(S'50.9880075'
p753
tp754
Rp755
sba(iLocation
Location
p756
(dp757
g3
g4
(S'13.7564045'
p758
tp759
Rp760
sg8
g4
(S'51.0267560'
p761
tp762
Rp763
sba(iLocation
Location
p764
(dp765
g3
g4
(S'13.6309018'
p766
tp767
Rp768
sg8
g4
(S'51.0392075'
p769
tp770
Rp771
sba(iLocation
Location
p772
(dp773
g3
g4
(S'13.8781642'
p774
tp775
Rp776
sg8
g4
(S'51.0037658'
p777
tp778
Rp779
sba(iLocation
Location
p780
(dp781
g3
g4
(S'13.7858607'
p782
tp783
Rp784
sg8
g4
(S'51.0684385'
p785
tp786
Rp787
sba(iLocation
Location
p788
(dp789
g3
g4
(S'13.7520543'
p790
tp791
Rp792
sg8
g4
(S'51.0505655'
p793
tp794
Rp795
sba(iLocation
Location
p796
(dp797
g3
g4
(S'13.8429574'
p798
tp799
Rp800
sg8
g4
(S'50.9813625'
p801
tp802
Rp803
sba(iLocation
Location
p804
(dp805
g3
g4
(S'13.7197737'
p806
tp807
Rp808
sg8
g4
(S'51.0255355'
p809
tp810
Rp811
sba(iLocation
Location
p812
(dp813
g3
g4
(S'13.6899358'
p814
tp815
Rp816
sg8
g4
(S'51.0795226'
p817
tp818
Rp819
sba(iLocation
Location
p820
(dp821
g3
g4
(S'13.7446137'
p822
tp823
Rp824
sg8
g4
(S'51.0256928'
p825
tp826
Rp827
sba(iLocation
Location
p828
(dp829
g3
g4
(S'13.7388384'
p830
tp831
Rp832
sg8
g4
(S'51.0657692'
p833
tp834
Rp835
sba(iLocation
Location
p836
(dp837
g3
g4
(S'13.6434868'
p838
tp839
Rp840
sg8
g4
(S'51.0094825'
p841
tp842
Rp843
sba(iLocation
Location
p844
(dp845
g3
g4
(S'13.6814426'
p846
tp847
Rp848
sg8
g4
(S'51.0267259'
p849
tp850
Rp851
sba(iLocation
Location
p852
(dp853
g3
g4
(S'13.8164655'
p854
tp855
Rp856
sg8
g4
(S'51.0914489'
p857
tp858
Rp859
sba(iLocation
Location
p860
(dp861
g3
g4
(S'13.7403265'
p862
tp863
Rp864
sg8
g4
(S'51.0411886'
p865
tp866
Rp867
sba(iLocation
Location
p868
(dp869
g3
g4
(S'13.6899920'
p870
tp871
Rp872
sg8
g4
(S'51.1007169'
p873
tp874
Rp875
sba(iLocation
Location
p876
(dp877
g3
g4
(S'13.7446800'
p878
tp879
Rp880
sg8
g4
(S'51.0632870'
p881
tp882
Rp883
sba(iLocation
Location
p884
(dp885
g3
g4
(S'13.6684384'
p886
tp887
Rp888
sg8
g4
(S'51.0722892'
p889
tp890
Rp891
sba(iLocation
Location
p892
(dp893
g3
g4
(S'13.8748833'
p894
tp895
Rp896
sg8
g4
(S'51.0166610'
p897
tp898
Rp899
sba(iLocation
Location
p900
(dp901
g3
g4
(S'13.8013711'
p902
tp903
Rp904
sg8
g4
(S'51.0083089'
p905
tp906
Rp907
sba(iLocation
Location
p908
(dp909
g3
g4
(S'13.7261341'
p910
tp911
Rp912
sg8
g4
(S'51.0266281'
p913
tp914
Rp915
sba(iLocation
Location
p916
(dp917
g3
g4
(S'13.7422106'
p918
tp919
Rp920
sg8
g4
(S'51.0523526'
p921
tp922
Rp923
sba(iLocation
Location
p924
(dp925
g3
g4
(S'13.7517670'
p926
tp927
Rp928
sg8
g4
(S'51.0769949'
p929
tp930
Rp931
sba(iLocation
Location
p932
(dp933
g3
g4
(S'13.7193656'
p934
tp935
Rp936
sg8
g4
(S'51.0873689'
p937
tp938
Rp939
sba(iLocation
Location
p940
(dp941
g3
g4
(S'13.7691461'
p942
tp943
Rp944
sg8
g4
(S'51.1026801'
p945
tp946
Rp947
sba(iLocation
Location
p948
(dp949
g3
g4
(S'13.7803359'
p950
tp951
Rp952
sg8
g4
(S'51.0422069'
p953
tp954
Rp955
sba(iLocation
Location
p956
(dp957
g3
g4
(S'13.6907399'
p958
tp959
Rp960
sg8
g4
(S'51.0852692'
p961
tp962
Rp963
sba(iLocation
Location
p964
(dp965
g3
g4
(S'13.7237510'
p966
tp967
Rp968
sg8
g4
(S'51.0254616'
p969
tp970
Rp971
sba(iLocation
Location
p972
(dp973
g3
g4
(S'13.6344812'
p974
tp975
Rp976
sg8
g4
(S'50.9858932'
p977
tp978
Rp979
sba(iLocation
Location
p980
(dp981
g3
g4
(S'13.7123811'
p982
tp983
Rp984
sg8
g4
(S'51.0793745'
p985
tp986
Rp987
sba(iLocation
Location
p988
(dp989
g3
g4
(S'13.6946518'
p990
tp991
Rp992
sg8
g4
(S'51.0131490'
p993
tp994
Rp995
sba(iLocation
Location
p996
(dp997
g3
g4
(S'13.5916289'
p998
tp999
Rp1000
sg8
g4
(S'50.9829993'
p1001
tp1002
Rp1003
sba(iLocation
Location
p1004
(dp1005
g3
g4
(S'13.6646045'
p1006
tp1007
Rp1008
sg8
g4
(S'51.0141585'
p1009
tp1010
Rp1011
sba(iLocation
Location
p1012
(dp1013
g3
g4
(S'13.7333976'
p1014
tp1015
Rp1016
sg8
g4
(S'51.0756846'
p1017
tp1018
Rp1019
sba(iLocation
Location
p1020
(dp1021
g3
g4
(S'13.6890773'
p1022
tp1023
Rp1024
sg8
g4
(S'51.0463541'
p1025
tp1026
Rp1027
sba(iLocation
Location
p1028
(dp1029
g3
g4
(S'13.7536803'
p1030
tp1031
Rp1032
sg8
g4
(S'51.0679462'
p1033
tp1034
Rp1035
sba(iLocation
Location
p1036
(dp1037
g3
g4
(S'13.6953920'
p1038
tp1039
Rp1040
sg8
g4
(S'51.0837360'
p1041
tp1042
Rp1043
sba(iLocation
Location
p1044
(dp1045
g3
g4
(S'13.8022459'
p1046
tp1047
Rp1048
sg8
g4
(S'51.0010497'
p1049
tp1050
Rp1051
sba(iLocation
Location
p1052
(dp1053
g3
g4
(S'13.8100791'
p1054
tp1055
Rp1056
sg8
g4
(S'51.0271144'
p1057
tp1058
Rp1059
sba(iLocation
Location
p1060
(dp1061
g3
g4
(S'13.8688470'
p1062
tp1063
Rp1064
sg8
g4
(S'51.0476333'
p1065
tp1066
Rp1067
sba(iLocation
Location
p1068
(dp1069
g3
g4
(S'13.7403232'
p1070
tp1071
Rp1072
sg8
g4
(S'51.0568902'
p1073
tp1074
Rp1075
sba(iLocation
Location
p1076
(dp1077
g3
g4
(S'13.7969544'
p1078
tp1079
Rp1080
sg8
g4
(S'51.0036585'
p1081
tp1082
Rp1083
sba(iLocation
Location
p1084
(dp1085
g3
g4
(S'13.7233486'
p1086
tp1087
Rp1088
sg8
g4
(S'51.0257898'
p1089
tp1090
Rp1091
sba(iLocation
Location
p1092
(dp1093
g3
g4
(S'13.7325589'
p1094
tp1095
Rp1096
sg8
g4
(S'51.0282800'
p1097
tp1098
Rp1099
sba(iLocation
Location
p1100
(dp1101
g3
g4
(S'13.8559594'
p1102
tp1103
Rp1104
sg8
g4
(S'50.9593572'
p1105
tp1106
Rp1107
sba(iLocation
Location
p1108
(dp1109
g3
g4
(S'13.7106664'
p1110
tp1111
Rp1112
sg8
g4
(S'51.0757932'
p1113
tp1114
Rp1115
sba(iLocation
Location
p1116
(dp1117
g3
g4
(S'13.7275054'
p1118
tp1119
Rp1120
sg8
g4
(S'51.0296345'
p1121
tp1122
Rp1123
sba(iLocation
Location
p1124
(dp1125
g3
g4
(S'13.7449437'
p1126
tp1127
Rp1128
sg8
g4
(S'51.0842535'
p1129
tp1130
Rp1131
sba(iLocation
Location
p1132
(dp1133
g3
g4
(S'13.7916526'
p1134
tp1135
Rp1136
sg8
g4
(S'51.0058492'
p1137
tp1138
Rp1139
sba(iLocation
Location
p1140
(dp1141
g3
g4
(S'13.7609796'
p1142
tp1143
Rp1144
sg8
g4
(S'51.0260663'
p1145
tp1146
Rp1147
sba(iLocation
Location
p1148
(dp1149
g3
g4
(S'13.7167936'
p1150
tp1151
Rp1152
sg8
g4
(S'51.0205775'
p1153
tp1154
Rp1155
sba(iLocation
Location
p1156
(dp1157
g3
g4
(S'13.8059137'
p1158
tp1159
Rp1160
sg8
g4
(S'50.9870673'
p1161
tp1162
Rp1163
sba(iLocation
Location
p1164
(dp1165
g3
g4
(S'13.7185371'
p1166
tp1167
Rp1168
sg8
g4
(S'50.9997175'
p1169
tp1170
Rp1171
sba(iLocation
Location
p1172
(dp1173
g3
g4
(S'13.7414395'
p1174
tp1175
Rp1176
sg8
g4
(S'51.0324729'
p1177
tp1178
Rp1179
sba(iLocation
Location
p1180
(dp1181
g3
g4
(S'13.7192509'
p1182
tp1183
Rp1184
sg8
g4
(S'51.0932351'
p1185
tp1186
Rp1187
sba(iLocation
Location
p1188
(dp1189
g3
g4
(S'13.6786223'
p1190
tp1191
Rp1192
sg8
g4
(S'51.0481700'
p1193
tp1194
Rp1195
sba(iLocation
Location
p1196
(dp1197
g3
g4
(S'13.8170867'
p1198
tp1199
Rp1200
sg8
g4
(S'51.0323586'
p1201
tp1202
Rp1203
sba(iLocation
Location
p1204
(dp1205
g3
g4
(S'13.7742079'
p1206
tp1207
Rp1208
sg8
g4
(S'51.0518227'
p1209
tp1210
Rp1211
sba(iLocation
Location
p1212
(dp1213
g3
g4
(S'13.7738508'
p1214
tp1215
Rp1216
sg8
g4
(S'51.0867429'
p1217
tp1218
Rp1219
sba(iLocation
Location
p1220
(dp1221
g3
g4
(S'13.7331518'
p1222
tp1223
Rp1224
sg8
g4
(S'51.0492161'
p1225
tp1226
Rp1227
sba(iLocation
Location
p1228
(dp1229
g3
g4
(S'13.6694298'
p1230
tp1231
Rp1232
sg8
g4
(S'51.0427942'
p1233
tp1234
Rp1235
sba(iLocation
Location
p1236
(dp1237
g3
g4
(S'13.8160253'
p1238
tp1239
Rp1240
sg8
g4
(S'51.0162653'
p1241
tp1242
Rp1243
sba(iLocation
Location
p1244
(dp1245
g3
g4
(S'13.7270377'
p1246
tp1247
Rp1248
sg8
g4
(S'51.0247999'
p1249
tp1250
Rp1251
sba(iLocation
Location
p1252
(dp1253
g3
g4
(S'13.7444232'
p1254
tp1255
Rp1256
sg8
g4
(S'51.0219476'
p1257
tp1258
Rp1259
sba(iLocation
Location
p1260
(dp1261
g3
g4
(S'13.7288750'
p1262
tp1263
Rp1264
sg8
g4
(S'51.0296983'
p1265
tp1266
Rp1267
sba(iLocation
Location
p1268
(dp1269
g3
g4
(S'13.7364222'
p1270
tp1271
Rp1272
sg8
g4
(S'51.0434756'
p1273
tp1274
Rp1275
sba(iLocation
Location
p1276
(dp1277
g3
g4
(S'13.6854439'
p1278
tp1279
Rp1280
sg8
g4
(S'51.1007320'
p1281
tp1282
Rp1283
sba(iLocation
Location
p1284
(dp1285
g3
g4
(S'13.6333759'
p1286
tp1287
Rp1288
sg8
g4
(S'51.0367759'
p1289
tp1290
Rp1291
sba(iLocation
Location
p1292
(dp1293
g3
g4
(S'13.8145665'
p1294
tp1295
Rp1296
sg8
g4
(S'51.0124965'
p1297
tp1298
Rp1299
sba(iLocation
Location
p1300
(dp1301
g3
g4
(S'13.7344092'
p1302
tp1303
Rp1304
sg8
g4
(S'51.0386354'
p1305
tp1306
Rp1307
sba(iLocation
Location
p1308
(dp1309
g3
g4
(S'13.7086338'
p1310
tp1311
Rp1312
sg8
g4
(S'51.0787942'
p1313
tp1314
Rp1315
sba(iLocation
Location
p1316
(dp1317
g3
g4
(S'13.7079397'
p1318
tp1319
Rp1320
sg8
g4
(S'51.0221033'
p1321
tp1322
Rp1323
sba(iLocation
Location
p1324
(dp1325
g3
g4
(S'13.7869217'
p1326
tp1327
Rp1328
sg8
g4
(S'51.0167506'
p1329
tp1330
Rp1331
sba(iLocation
Location
p1332
(dp1333
g3
g4
(S'13.7783668'
p1334
tp1335
Rp1336
sg8
g4
(S'51.0347361'
p1337
tp1338
Rp1339
sba(iLocation
Location
p1340
(dp1341
g3
g4
(S'13.8048324'
p1342
tp1343
Rp1344
sg8
g4
(S'50.9991044'
p1345
tp1346
Rp1347
sba(iLocation
Location
p1348
(dp1349
g3
g4
(S'13.8571173'
p1350
tp1351
Rp1352
sg8
g4
(S'51.0913560'
p1353
tp1354
Rp1355
sba(iLocation
Location
p1356
(dp1357
g3
g4
(S'13.7889064'
p1358
tp1359
Rp1360
sg8
g4
(S'51.0378262'
p1361
tp1362
Rp1363
sba(iLocation
Location
p1364
(dp1365
g3
g4
(S'13.8711289'
p1366
tp1367
Rp1368
sg8
g4
(S'51.0120823'
p1369
tp1370
Rp1371
sba(iLocation
Location
p1372
(dp1373
g3
g4
(S'13.8134574'
p1374
tp1375
Rp1376
sg8
g4
(S'51.0533812'
p1377
tp1378
Rp1379
sba(iLocation
Location
p1380
(dp1381
g3
g4
(S'13.7436120'
p1382
tp1383
Rp1384
sg8
g4
(S'51.0839264'
p1385
tp1386
Rp1387
sba(iLocation
Location
p1388
(dp1389
g3
g4
(S'13.7705136'
p1390
tp1391
Rp1392
sg8
g4
(S'51.0491088'
p1393
tp1394
Rp1395
sba(iLocation
Location
p1396
(dp1397
g3
g4
(S'13.7435190'
p1398
tp1399
Rp1400
sg8
g4
(S'51.0500721'
p1401
tp1402
Rp1403
sba(iLocation
Location
p1404
(dp1405
g3
g4
(S'13.7411817'
p1406
tp1407
Rp1408
sg8
g4
(S'51.0394030'
p1409
tp1410
Rp1411
sba(iLocation
Location
p1412
(dp1413
g3
g4
(S'13.7522014'
p1414
tp1415
Rp1416
sg8
g4
(S'51.0730345'
p1417
tp1418
Rp1419
sba(iLocation
Location
p1420
(dp1421
g3
g4
(S'13.7669126'
p1422
tp1423
Rp1424
sg8
g4
(S'51.0307450'
p1425
tp1426
Rp1427
sba(iLocation
Location
p1428
(dp1429
g3
g4
(S'13.7592989'
p1430
tp1431
Rp1432
sg8
g4
(S'51.0615406'
p1433
tp1434
Rp1435
sba(iLocation
Location
p1436
(dp1437
g3
g4
(S'13.6835463'
p1438
tp1439
Rp1440
sg8
g4
(S'51.0855658'
p1441
tp1442
Rp1443
sba(iLocation
Location
p1444
(dp1445
g3
g4
(S'13.6220815'
p1446
tp1447
Rp1448
sg8
g4
(S'51.0196378'
p1449
tp1450
Rp1451
sba(iLocation
Location
p1452
(dp1453
g3
g4
(S'13.8825528'
p1454
tp1455
Rp1456
sg8
g4
(S'51.0168700'
p1457
tp1458
Rp1459
sba(iLocation
Location
p1460
(dp1461
g3
g4
(S'13.7023820'
p1462
tp1463
Rp1464
sg8
g4
(S'51.0225188'
p1465
tp1466
Rp1467
sba(iLocation
Location
p1468
(dp1469
g3
g4
(S'13.7499217'
p1470
tp1471
Rp1472
sg8
g4
(S'51.0752560'
p1473
tp1474
Rp1475
sba(iLocation
Location
p1476
(dp1477
g3
g4
(S'13.6704533'
p1478
tp1479
Rp1480
sg8
g4
(S'51.0446618'
p1481
tp1482
Rp1483
sba(iLocation
Location
p1484
(dp1485
g3
g4
(S'13.7018297'
p1486
tp1487
Rp1488
sg8
g4
(S'51.0306695'
p1489
tp1490
Rp1491
sba(iLocation
Location
p1492
(dp1493
g3
g4
(S'13.6024138'
p1494
tp1495
Rp1496
sg8
g4
(S'51.0764846'
p1497
tp1498
Rp1499
sba(iLocation
Location
p1500
(dp1501
g3
g4
(S'13.7433788'
p1502
tp1503
Rp1504
sg8
g4
(S'51.0534135'
p1505
tp1506
Rp1507
sba(iLocation
Location
p1508
(dp1509
g3
g4
(S'13.7436286'
p1510
tp1511
Rp1512
sg8
g4
(S'51.0444173'
p1513
tp1514
Rp1515
sba(iLocation
Location
p1516
(dp1517
g3
g4
(S'13.6398448'
p1518
tp1519
Rp1520
sg8
g4
(S'51.0169104'
p1521
tp1522
Rp1523
sba(iLocation
Location
p1524
(dp1525
g3
g4
(S'13.7154043'
p1526
tp1527
Rp1528
sg8
g4
(S'51.0356072'
p1529
tp1530
Rp1531
sba(iLocation
Location
p1532
(dp1533
g3
g4
(S'13.7686034'
p1534
tp1535
Rp1536
sg8
g4
(S'51.0967276'
p1537
tp1538
Rp1539
sba(iLocation
Location
p1540
(dp1541
g3
g4
(S'13.7859274'
p1542
tp1543
Rp1544
sg8
g4
(S'51.0555395'
p1545
tp1546
Rp1547
sba(iLocation
Location
p1548
(dp1549
g3
g4
(S'13.6355014'
p1550
tp1551
Rp1552
sg8
g4
(S'51.0409316'
p1553
tp1554
Rp1555
sba(iLocation
Location
p1556
(dp1557
g3
g4
(S'13.7941135'
p1558
tp1559
Rp1560
sg8
g4
(S'51.0482173'
p1561
tp1562
Rp1563
sba(iLocation
Location
p1564
(dp1565
g3
g4
(S'13.8112056'
p1566
tp1567
Rp1568
sg8
g4
(S'51.0197315'
p1569
tp1570
Rp1571
sba(iLocation
Location
p1572
(dp1573
g3
g4
(S'13.7781096'
p1574
tp1575
Rp1576
sg8
g4
(S'51.0119408'
p1577
tp1578
Rp1579
sba(iLocation
Location
p1580
(dp1581
g3
g4
(S'13.7404001'
p1582
tp1583
Rp1584
sg8
g4
(S'51.0683542'
p1585
tp1586
Rp1587
sba(iLocation
Location
p1588
(dp1589
g3
g4
(S'13.7000733'
p1590
tp1591
Rp1592
sg8
g4
(S'51.0320630'
p1593
tp1594
Rp1595
sba(iLocation
Location
p1596
(dp1597
g3
g4
(S'13.7992942'
p1598
tp1599
Rp1600
sg8
g4
(S'50.9955542'
p1601
tp1602
Rp1603
sba(iLocation
Location
p1604
(dp1605
g3
g4
(S'13.7482217'
p1606
tp1607
Rp1608
sg8
g4
(S'51.0087794'
p1609
tp1610
Rp1611
sba(iLocation
Location
p1612
(dp1613
g3
g4
(S'13.7712332'
p1614
tp1615
Rp1616
sg8
g4
(S'51.0935024'
p1617
tp1618
Rp1619
sba(iLocation
Location
p1620
(dp1621
g3
g4
(S'13.7487857'
p1622
tp1623
Rp1624
sg8
g4
(S'51.0699996'
p1625
tp1626
Rp1627
sba(iLocation
Location
p1628
(dp1629
g3
g4
(S'13.7414882'
p1630
tp1631
Rp1632
sg8
g4
(S'51.0706404'
p1633
tp1634
Rp1635
sba(iLocation
Location
p1636
(dp1637
g3
g4
(S'13.6657257'
p1638
tp1639
Rp1640
sg8
g4
(S'51.0478608'
p1641
tp1642
Rp1643
sba(iLocation
Location
p1644
(dp1645
g3
g4
(S'13.7220262'
p1646
tp1647
Rp1648
sg8
g4
(S'51.0260539'
p1649
tp1650
Rp1651
sba(iLocation
Location
p1652
(dp1653
g3
g4
(S'13.7841028'
p1654
tp1655
Rp1656
sg8
g4
(S'51.0392567'
p1657
tp1658
Rp1659
sba(iLocation
Location
p1660
(dp1661
g3
g4
(S'13.8236062'
p1662
tp1663
Rp1664
sg8
g4
(S'51.0340380'
p1665
tp1666
Rp1667
sba(iLocation
Location
p1668
(dp1669
g3
g4
(S'13.6741362'
p1670
tp1671
Rp1672
sg8
g4
(S'51.0307580'
p1673
tp1674
Rp1675
sba(iLocation
Location
p1676
(dp1677
g3
g4
(S'13.8781917'
p1678
tp1679
Rp1680
sg8
g4
(S'50.9712002'
p1681
tp1682
Rp1683
sba(iLocation
Location
p1684
(dp1685
g3
g4
(S'13.7149821'
p1686
tp1687
Rp1688
sg8
g4
(S'51.0365404'
p1689
tp1690
Rp1691
sba(iLocation
Location
p1692
(dp1693
g3
g4
(S'13.6881681'
p1694
tp1695
Rp1696
sg8
g4
(S'51.0750167'
p1697
tp1698
Rp1699
sba(iLocation
Location
p1700
(dp1701
g3
g4
(S'13.6519171'
p1702
tp1703
Rp1704
sg8
g4
(S'51.0639452'
p1705
tp1706
Rp1707
sba(iLocation
Location
p1708
(dp1709
g3
g4
(S'13.7195965'
p1710
tp1711
Rp1712
sg8
g4
(S'51.0935356'
p1713
tp1714
Rp1715
sba(iLocation
Location
p1716
(dp1717
g3
g4
(S'13.7924348'
p1718
tp1719
Rp1720
sg8
g4
(S'51.0209304'
p1721
tp1722
Rp1723
sba(iLocation
Location
p1724
(dp1725
g3
g4
(S'13.7328951'
p1726
tp1727
Rp1728
sg8
g4
(S'51.0469821'
p1729
tp1730
Rp1731
sba(iLocation
Location
p1732
(dp1733
g3
g4
(S'13.8677615'
p1734
tp1735
Rp1736
sg8
g4
(S'50.9824164'
p1737
tp1738
Rp1739
sba(iLocation
Location
p1740
(dp1741
g3
g4
(S'13.7972541'
p1742
tp1743
Rp1744
sg8
g4
(S'51.0116316'
p1745
tp1746
Rp1747
sba(iLocation
Location
p1748
(dp1749
g3
g4
(S'13.7399216'
p1750
tp1751
Rp1752
sg8
g4
(S'51.0413213'
p1753
tp1754
Rp1755
sba(iLocation
Location
p1756
(dp1757
g3
g4
(S'13.7551431'
p1758
tp1759
Rp1760
sg8
g4
(S'51.0263927'
p1761
tp1762
Rp1763
sba(iLocation
Location
p1764
(dp1765
g3
g4
(S'13.6542929'
p1766
tp1767
Rp1768
sg8
g4
(S'51.0119799'
p1769
tp1770
Rp1771
sba(iLocation
Location
p1772
(dp1773
g3
g4
(S'13.7429550'
p1774
tp1775
Rp1776
sg8
g4
(S'51.0594198'
p1777
tp1778
Rp1779
sba(iLocation
Location
p1780
(dp1781
g3
g4
(S'13.7806793'
p1782
tp1783
Rp1784
sg8
g4
(S'51.0497281'
p1785
tp1786
Rp1787
sba(iLocation
Location
p1788
(dp1789
g3
g4
(S'13.6918979'
p1790
tp1791
Rp1792
sg8
g4
(S'51.0728924'
p1793
tp1794
Rp1795
sba(iLocation
Location
p1796
(dp1797
g3
g4
(S'13.6654450'
p1798
tp1799
Rp1800
sg8
g4
(S'51.0609130'
p1801
tp1802
Rp1803
sba(iLocation
Location
p1804
(dp1805
g3
g4
(S'13.7568838'
p1806
tp1807
Rp1808
sg8
g4
(S'51.0741733'
p1809
tp1810
Rp1811
sba(iLocation
Location
p1812
(dp1813
g3
g4
(S'13.7814500'
p1814
tp1815
Rp1816
sg8
g4
(S'51.0104454'
p1817
tp1818
Rp1819
sba(iLocation
Location
p1820
(dp1821
g3
g4
(S'13.7707451'
p1822
tp1823
Rp1824
sg8
g4
(S'51.0180728'
p1825
tp1826
Rp1827
sba(iLocation
Location
p1828
(dp1829
g3
g4
(S'13.7885447'
p1830
tp1831
Rp1832
sg8
g4
(S'51.0055847'
p1833
tp1834
Rp1835
sba(iLocation
Location
p1836
(dp1837
g3
g4
(S'13.7841738'
p1838
tp1839
Rp1840
sg8
g4
(S'51.0431232'
p1841
tp1842
Rp1843
sba(iLocation
Location
p1844
(dp1845
g3
g4
(S'13.7274132'
p1846
tp1847
Rp1848
sg8
g4
(S'51.0402519'
p1849
tp1850
Rp1851
sba(iLocation
Location
p1852
(dp1853
g3
g4
(S'13.6660248'
p1854
tp1855
Rp1856
sg8
g4
(S'51.0034590'
p1857
tp1858
Rp1859
sba(iLocation
Location
p1860
(dp1861
g3
g4
(S'13.7442472'
p1862
tp1863
Rp1864
sg8
g4
(S'51.0496367'
p1865
tp1866
Rp1867
sba(iLocation
Location
p1868
(dp1869
g3
g4
(S'13.7813708'
p1870
tp1871
Rp1872
sg8
g4
(S'51.0355222'
p1873
tp1874
Rp1875
sba(iLocation
Location
p1876
(dp1877
g3
g4
(S'13.7098440'
p1878
tp1879
Rp1880
sg8
g4
(S'51.0322447'
p1881
tp1882
Rp1883
sba(iLocation
Location
p1884
(dp1885
g3
g4
(S'13.7316797'
p1886
tp1887
Rp1888
sg8
g4
(S'51.0215453'
p1889
tp1890
Rp1891
sba(iLocation
Location
p1892
(dp1893
g3
g4
(S'13.6696463'
p1894
tp1895
Rp1896
sg8
g4
(S'51.0459185'
p1897
tp1898
Rp1899
sba(iLocation
Location
p1900
(dp1901
g3
g4
(S'13.7885471'
p1902
tp1903
Rp1904
sg8
g4
(S'51.0461479'
p1905
tp1906
Rp1907
sba(iLocation
Location
p1908
(dp1909
g3
g4
(S'13.7236646'
p1910
tp1911
Rp1912
sg8
g4
(S'51.0882572'
p1913
tp1914
Rp1915
sba(iLocation
Location
p1916
(dp1917
g3
g4
(S'13.5789859'
p1918
tp1919
Rp1920
sg8
g4
(S'51.0179039'
p1921
tp1922
Rp1923
sba(iLocation
Location
p1924
(dp1925
g3
g4
(S'13.6361356'
p1926
tp1927
Rp1928
sg8
g4
(S'51.0897820'
p1929
tp1930
Rp1931
sba(iLocation
Location
p1932
(dp1933
g3
g4
(S'13.8521710'
p1934
tp1935
Rp1936
sg8
g4
(S'51.0558837'
p1937
tp1938
Rp1939
sba(iLocation
Location
p1940
(dp1941
g3
g4
(S'13.7936804'
p1942
tp1943
Rp1944
sg8
g4
(S'51.0130638'
p1945
tp1946
Rp1947
sba(iLocation
Location
p1948
(dp1949
g3
g4
(S'13.7480332'
p1950
tp1951
Rp1952
sg8
g4
(S'51.0687097'
p1953
tp1954
Rp1955
sba(iLocation
Location
p1956
(dp1957
g3
g4
(S'13.8794081'
p1958
tp1959
Rp1960
sg8
g4
(S'50.9704352'
p1961
tp1962
Rp1963
sba(iLocation
Location
p1964
(dp1965
g3
g4
(S'13.7745406'
p1966
tp1967
Rp1968
sg8
g4
(S'51.0164197'
p1969
tp1970
Rp1971
sba(iLocation
Location
p1972
(dp1973
g3
g4
(S'13.7988326'
p1974
tp1975
Rp1976
sg8
g4
(S'51.0640726'
p1977
tp1978
Rp1979
sba(iLocation
Location
p1980
(dp1981
g3
g4
(S'13.8281850'
p1982
tp1983
Rp1984
sg8
g4
(S'50.9861579'
p1985
tp1986
Rp1987
sba(iLocation
Location
p1988
(dp1989
g3
g4
(S'13.8639531'
p1990
tp1991
Rp1992
sg8
g4
(S'51.0135958'
p1993
tp1994
Rp1995
sba(iLocation
Location
p1996
(dp1997
g3
g4
(S'13.7279324'
p1998
tp1999
Rp2000
sg8
g4
(S'50.9814547'
p2001
tp2002
Rp2003
sba(iLocation
Location
p2004
(dp2005
g3
g4
(S'13.8545383'
p2006
tp2007
Rp2008
sg8
g4
(S'51.0620238'
p2009
tp2010
Rp2011
sba(iLocation
Location
p2012
(dp2013
g3
g4
(S'13.6972524'
p2014
tp2015
Rp2016
sg8
g4
(S'51.0110325'
p2017
tp2018
Rp2019
sba(iLocation
Location
p2020
(dp2021
g3
g4
(S'13.6459318'
p2022
tp2023
Rp2024
sg8
g4
(S'51.0882820'
p2025
tp2026
Rp2027
sba(iLocation
Location
p2028
(dp2029
g3
g4
(S'13.7177467'
p2030
tp2031
Rp2032
sg8
g4
(S'51.0897950'
p2033
tp2034
Rp2035
sba(iLocation
Location
p2036
(dp2037
g3
g4
(S'13.6888361'
p2038
tp2039
Rp2040
sg8
g4
(S'51.0677172'
p2041
tp2042
Rp2043
sba(iLocation
Location
p2044
(dp2045
g3
g4
(S'13.7414436'
p2046
tp2047
Rp2048
sg8
g4
(S'51.0532427'
p2049
tp2050
Rp2051
sba(iLocation
Location
p2052
(dp2053
g3
g4
(S'13.7169824'
p2054
tp2055
Rp2056
sg8
g4
(S'51.0348947'
p2057
tp2058
Rp2059
sba(iLocation
Location
p2060
(dp2061
g3
g4
(S'13.7137602'
p2062
tp2063
Rp2064
sg8
g4
(S'51.0357886'
p2065
tp2066
Rp2067
sba(iLocation
Location
p2068
(dp2069
g3
g4
(S'13.6433435'
p2070
tp2071
Rp2072
sg8
g4
(S'50.9922361'
p2073
tp2074
Rp2075
sba(iLocation
Location
p2076
(dp2077
g3
g4
(S'13.6672952'
p2078
tp2079
Rp2080
sg8
g4
(S'51.0470060'
p2081
tp2082
Rp2083
sba(iLocation
Location
p2084
(dp2085
g3
g4
(S'13.7331269'
p2086
tp2087
Rp2088
sg8
g4
(S'51.0508185'
p2089
tp2090
Rp2091
sba(iLocation
Location
p2092
(dp2093
g3
g4
(S'13.7807173'
p2094
tp2095
Rp2096
sg8
g4
(S'51.0551680'
p2097
tp2098
Rp2099
sba(iLocation
Location
p2100
(dp2101
g3
g4
(S'13.7825514'
p2102
tp2103
Rp2104
sg8
g4
(S'51.0150950'
p2105
tp2106
Rp2107
sba(iLocation
Location
p2108
(dp2109
g3
g4
(S'13.6919388'
p2110
tp2111
Rp2112
sg8
g4
(S'51.0844638'
p2113
tp2114
Rp2115
sba(iLocation
Location
p2116
(dp2117
g3
g4
(S'13.7195376'
p2118
tp2119
Rp2120
sg8
g4
(S'51.0199034'
p2121
tp2122
Rp2123
sba(iLocation
Location
p2124
(dp2125
g3
g4
(S'13.7389085'
p2126
tp2127
Rp2128
sg8
g4
(S'51.0595378'
p2129
tp2130
Rp2131
sba(iLocation
Location
p2132
(dp2133
g3
g4
(S'13.7434486'
p2134
tp2135
Rp2136
sg8
g4
(S'51.0633144'
p2137
tp2138
Rp2139
sba(iLocation
Location
p2140
(dp2141
g3
g4
(S'13.7513263'
p2142
tp2143
Rp2144
sg8
g4
(S'51.0663309'
p2145
tp2146
Rp2147
sba(iLocation
Location
p2148
(dp2149
g3
g4
(S'13.7667316'
p2150
tp2151
Rp2152
sg8
g4
(S'51.0266503'
p2153
tp2154
Rp2155
sba(iLocation
Location
p2156
(dp2157
g3
g4
(S'13.7732055'
p2158
tp2159
Rp2160
sg8
g4
(S'51.0428585'
p2161
tp2162
Rp2163
sba(iLocation
Location
p2164
(dp2165
g3
g4
(S'13.7115131'
p2166
tp2167
Rp2168
sg8
g4
(S'50.9628167'
p2169
tp2170
Rp2171
sba(iLocation
Location
p2172
(dp2173
g3
g4
(S'13.7704840'
p2174
tp2175
Rp2176
sg8
g4
(S'51.0981004'
p2177
tp2178
Rp2179
sba(iLocation
Location
p2180
(dp2181
g3
g4
(S'13.7395941'
p2182
tp2183
Rp2184
sg8
g4
(S'51.0292069'
p2185
tp2186
Rp2187
sba(iLocation
Location
p2188
(dp2189
g3
g4
(S'13.7891447'
p2190
tp2191
Rp2192
sg8
g4
(S'51.0302664'
p2193
tp2194
Rp2195
sba(iLocation
Location
p2196
(dp2197
g3
g4
(S'13.6465240'
p2198
tp2199
Rp2200
sg8
g4
(S'51.0144065'
p2201
tp2202
Rp2203
sba(iLocation
Location
p2204
(dp2205
g3
g4
(S'13.6425330'
p2206
tp2207
Rp2208
sg8
g4
(S'51.0950634'
p2209
tp2210
Rp2211
sba(iLocation
Location
p2212
(dp2213
g3
g4
(S'13.8169617'
p2214
tp2215
Rp2216
sg8
g4
(S'51.0517229'
p2217
tp2218
Rp2219
sba(iLocation
Location
p2220
(dp2221
g3
g4
(S'13.6421288'
p2222
tp2223
Rp2224
sg8
g4
(S'51.0051658'
p2225
tp2226
Rp2227
sba(iLocation
Location
p2228
(dp2229
g3
g4
(S'13.7490551'
p2230
tp2231
Rp2232
sg8
g4
(S'51.0389491'
p2233
tp2234
Rp2235
sba(iLocation
Location
p2236
(dp2237
g3
g4
(S'13.6580201'
p2238
tp2239
Rp2240
sg8
g4
(S'51.0514241'
p2241
tp2242
Rp2243
sba(iLocation
Location
p2244
(dp2245
g3
g4
(S'13.8267476'
p2246
tp2247
Rp2248
sg8
g4
(S'51.0225857'
p2249
tp2250
Rp2251
sba(iLocation
Location
p2252
(dp2253
g3
g4
(S'13.7737763'
p2254
tp2255
Rp2256
sg8
g4
(S'51.0436746'
p2257
tp2258
Rp2259
sba(iLocation
Location
p2260
(dp2261
g3
g4
(S'13.7895625'
p2262
tp2263
Rp2264
sg8
g4
(S'51.0045126'
p2265
tp2266
Rp2267
sba(iLocation
Location
p2268
(dp2269
g3
g4
(S'13.8020068'
p2270
tp2271
Rp2272
sg8
g4
(S'50.9946162'
p2273
tp2274
Rp2275
sba(iLocation
Location
p2276
(dp2277
g3
g4
(S'13.8141573'
p2278
tp2279
Rp2280
sg8
g4
(S'50.9622934'
p2281
tp2282
Rp2283
sba(iLocation
Location
p2284
(dp2285
g3
g4
(S'13.7210835'
p2286
tp2287
Rp2288
sg8
g4
(S'51.0365719'
p2289
tp2290
Rp2291
sba(iLocation
Location
p2292
(dp2293
g3
g4
(S'13.6798165'
p2294
tp2295
Rp2296
sg8
g4
(S'51.0628115'
p2297
tp2298
Rp2299
sba(iLocation
Location
p2300
(dp2301
g3
g4
(S'13.7675093'
p2302
tp2303
Rp2304
sg8
g4
(S'50.9599458'
p2305
tp2306
Rp2307
sba(iLocation
Location
p2308
(dp2309
g3
g4
(S'13.7291711'
p2310
tp2311
Rp2312
sg8
g4
(S'51.0276244'
p2313
tp2314
Rp2315
sba(iLocation
Location
p2316
(dp2317
g3
g4
(S'13.7420913'
p2318
tp2319
Rp2320
sg8
g4
(S'51.0580533'
p2321
tp2322
Rp2323
sba(iLocation
Location
p2324
(dp2325
g3
g4
(S'13.7189531'
p2326
tp2327
Rp2328
sg8
g4
(S'51.0283305'
p2329
tp2330
Rp2331
sba(iLocation
Location
p2332
(dp2333
g3
g4
(S'13.5814539'
p2334
tp2335
Rp2336
sg8
g4
(S'50.9806361'
p2337
tp2338
Rp2339
sba(iLocation
Location
p2340
(dp2341
g3
g4
(S'13.7221985'
p2342
tp2343
Rp2344
sg8
g4
(S'51.0935292'
p2345
tp2346
Rp2347
sba(iLocation
Location
p2348
(dp2349
g3
g4
(S'13.6187529'
p2350
tp2351
Rp2352
sg8
g4
(S'50.9629863'
p2353
tp2354
Rp2355
sba(iLocation
Location
p2356
(dp2357
g3
g4
(S'13.6356016'
p2358
tp2359
Rp2360
sg8
g4
(S'51.0210386'
p2361
tp2362
Rp2363
sba(iLocation
Location
p2364
(dp2365
g3
g4
(S'13.6767216'
p2366
tp2367
Rp2368
sg8
g4
(S'51.0984792'
p2369
tp2370
Rp2371
sba(iLocation
Location
p2372
(dp2373
g3
g4
(S'13.7273131'
p2374
tp2375
Rp2376
sg8
g4
(S'51.0318029'
p2377
tp2378
Rp2379
sba(iLocation
Location
p2380
(dp2381
g3
g4
(S'13.7041486'
p2382
tp2383
Rp2384
sg8
g4
(S'51.0871203'
p2385
tp2386
Rp2387
sba(iLocation
Location
p2388
(dp2389
g3
g4
(S'13.7881634'
p2390
tp2391
Rp2392
sg8
g4
(S'50.9906068'
p2393
tp2394
Rp2395
sba(iLocation
Location
p2396
(dp2397
g3
g4
(S'13.7462534'
p2398
tp2399
Rp2400
sg8
g4
(S'51.0382022'
p2401
tp2402
Rp2403
sba(iLocation
Location
p2404
(dp2405
g3
g4
(S'13.8777460'
p2406
tp2407
Rp2408
sg8
g4
(S'51.0252699'
p2409
tp2410
Rp2411
sba(iLocation
Location
p2412
(dp2413
g3
g4
(S'13.6056368'
p2414
tp2415
Rp2416
sg8
g4
(S'51.0747738'
p2417
tp2418
Rp2419
sba(iLocation
Location
p2420
(dp2421
g3
g4
(S'13.8090335'
p2422
tp2423
Rp2424
sg8
g4
(S'51.0191948'
p2425
tp2426
Rp2427
sba(iLocation
Location
p2428
(dp2429
g3
g4
(S'13.6617262'
p2430
tp2431
Rp2432
sg8
g4
(S'51.0047562'
p2433
tp2434
Rp2435
sba(iLocation
Location
p2436
(dp2437
g3
g4
(S'13.7446370'
p2438
tp2439
Rp2440
sg8
g4
(S'51.0412530'
p2441
tp2442
Rp2443
sba(iLocation
Location
p2444
(dp2445
g3
g4
(S'13.8077632'
p2446
tp2447
Rp2448
sg8
g4
(S'51.0002598'
p2449
tp2450
Rp2451
sba(iLocation
Location
p2452
(dp2453
g3
g4
(S'13.6961312'
p2454
tp2455
Rp2456
sg8
g4
(S'51.0818809'
p2457
tp2458
Rp2459
sba(iLocation
Location
p2460
(dp2461
g3
g4
(S'13.7068770'
p2462
tp2463
Rp2464
sg8
g4
(S'51.0247773'
p2465
tp2466
Rp2467
sba(iLocation
Location
p2468
(dp2469
g3
g4
(S'13.8051050'
p2470
tp2471
Rp2472
sg8
g4
(S'51.0235027'
p2473
tp2474
Rp2475
sba(iLocation
Location
p2476
(dp2477
g3
g4
(S'13.8621385'
p2478
tp2479
Rp2480
sg8
g4
(S'51.0082068'
p2481
tp2482
Rp2483
sba(iLocation
Location
p2484
(dp2485
g3
g4
(S'13.6858828'
p2486
tp2487
Rp2488
sg8
g4
(S'51.0464561'
p2489
tp2490
Rp2491
sba(iLocation
Location
p2492
(dp2493
g3
g4
(S'13.6577268'
p2494
tp2495
Rp2496
sg8
g4
(S'51.0528778'
p2497
tp2498
Rp2499
sba(iLocation
Location
p2500
(dp2501
g3
g4
(S'13.7675146'
p2502
tp2503
Rp2504
sg8
g4
(S'51.0087222'
p2505
tp2506
Rp2507
sba(iLocation
Location
p2508
(dp2509
g3
g4
(S'13.6899218'
p2510
tp2511
Rp2512
sg8
g4
(S'51.0973468'
p2513
tp2514
Rp2515
sba(iLocation
Location
p2516
(dp2517
g3
g4
(S'13.8643374'
p2518
tp2519
Rp2520
sg8
g4
(S'51.0138649'
p2521
tp2522
Rp2523
sba(iLocation
Location
p2524
(dp2525
g3
g4
(S'13.6682715'
p2526
tp2527
Rp2528
sg8
g4
(S'51.0476898'
p2529
tp2530
Rp2531
sba(iLocation
Location
p2532
(dp2533
g3
g4
(S'13.6601912'
p2534
tp2535
Rp2536
sg8
g4
(S'51.0401479'
p2537
tp2538
Rp2539
sba(iLocation
Location
p2540
(dp2541
g3
g4
(S'13.7568368'
p2542
tp2543
Rp2544
sg8
g4
(S'51.0601016'
p2545
tp2546
Rp2547
sba(iLocation
Location
p2548
(dp2549
g3
g4
(S'13.8442331'
p2550
tp2551
Rp2552
sg8
g4
(S'51.0396193'
p2553
tp2554
Rp2555
sba(iLocation
Location
p2556
(dp2557
g3
g4
(S'13.7793625'
p2558
tp2559
Rp2560
sg8
g4
(S'51.0550235'
p2561
tp2562
Rp2563
sba(iLocation
Location
p2564
(dp2565
g3
g4
(S'13.7193704'
p2566
tp2567
Rp2568
sg8
g4
(S'51.0293183'
p2569
tp2570
Rp2571
sba(iLocation
Location
p2572
(dp2573
g3
g4
(S'13.7583150'
p2574
tp2575
Rp2576
sg8
g4
(S'51.0426335'
p2577
tp2578
Rp2579
sba(iLocation
Location
p2580
(dp2581
g3
g4
(S'13.8688866'
p2582
tp2583
Rp2584
sg8
g4
(S'50.9755250'
p2585
tp2586
Rp2587
sba(iLocation
Location
p2588
(dp2589
g3
g4
(S'13.8286419'
p2590
tp2591
Rp2592
sg8
g4
(S'51.0108992'
p2593
tp2594
Rp2595
sba(iLocation
Location
p2596
(dp2597
g3
g4
(S'13.7220448'
p2598
tp2599
Rp2600
sg8
g4
(S'51.0337378'
p2601
tp2602
Rp2603
sba(iLocation
Location
p2604
(dp2605
g3
g4
(S'13.7299382'
p2606
tp2607
Rp2608
sg8
g4
(S'51.0217326'
p2609
tp2610
Rp2611
sba(iLocation
Location
p2612
(dp2613
g3
g4
(S'13.6340969'
p2614
tp2615
Rp2616
sg8
g4
(S'50.9783606'
p2617
tp2618
Rp2619
sba(iLocation
Location
p2620
(dp2621
g3
g4
(S'13.8259975'
p2622
tp2623
Rp2624
sg8
g4
(S'51.0054345'
p2625
tp2626
Rp2627
sba(iLocation
Location
p2628
(dp2629
g3
g4
(S'13.5906897'
p2630
tp2631
Rp2632
sg8
g4
(S'51.0320613'
p2633
tp2634
Rp2635
sba(iLocation
Location
p2636
(dp2637
g3
g4
(S'13.8601904'
p2638
tp2639
Rp2640
sg8
g4
(S'51.0132306'
p2641
tp2642
Rp2643
sba(iLocation
Location
p2644
(dp2645
g3
g4
(S'13.7458675'
p2646
tp2647
Rp2648
sg8
g4
(S'51.0493752'
p2649
tp2650
Rp2651
sba(iLocation
Location
p2652
(dp2653
g3
g4
(S'13.7417052'
p2654
tp2655
Rp2656
sg8
g4
(S'51.0590879'
p2657
tp2658
Rp2659
sba(iLocation
Location
p2660
(dp2661
g3
g4
(S'13.6925825'
p2662
tp2663
Rp2664
sg8
g4
(S'51.0630871'
p2665
tp2666
Rp2667
sba(iLocation
Location
p2668
(dp2669
g3
g4
(S'13.7716974'
p2670
tp2671
Rp2672
sg8
g4
(S'51.0459344'
p2673
tp2674
Rp2675
sba(iLocation
Location
p2676
(dp2677
g3
g4
(S'13.8083829'
p2678
tp2679
Rp2680
sg8
g4
(S'51.0526603'
p2681
tp2682
Rp2683
sba(iLocation
Location
p2684
(dp2685
g3
g4
(S'13.6579277'
p2686
tp2687
Rp2688
sg8
g4
(S'51.0095065'
p2689
tp2690
Rp2691
sba(iLocation
Location
p2692
(dp2693
g3
g4
(S'13.7308119'
p2694
tp2695
Rp2696
sg8
g4
(S'51.0327164'
p2697
tp2698
Rp2699
sba(iLocation
Location
p2700
(dp2701
g3
g4
(S'13.5990934'
p2702
tp2703
Rp2704
sg8
g4
(S'50.9734452'
p2705
tp2706
Rp2707
sba(iLocation
Location
p2708
(dp2709
g3
g4
(S'13.7663170'
p2710
tp2711
Rp2712
sg8
g4
(S'51.0712025'
p2713
tp2714
Rp2715
sba(iLocation
Location
p2716
(dp2717
g3
g4
(S'13.7518647'
p2718
tp2719
Rp2720
sg8
g4
(S'51.0595379'
p2721
tp2722
Rp2723
sba(iLocation
Location
p2724
(dp2725
g3
g4
(S'13.6178730'
p2726
tp2727
Rp2728
sg8
g4
(S'51.0089243'
p2729
tp2730
Rp2731
sba(iLocation
Location
p2732
(dp2733
g3
g4
(S'13.6441554'
p2734
tp2735
Rp2736
sg8
g4
(S'51.0752305'
p2737
tp2738
Rp2739
sba(iLocation
Location
p2740
(dp2741
g3
g4
(S'13.7209968'
p2742
tp2743
Rp2744
sg8
g4
(S'51.0846254'
p2745
tp2746
Rp2747
sba(iLocation
Location
p2748
(dp2749
g3
g4
(S'13.8094538'
p2750
tp2751
Rp2752
sg8
g4
(S'51.0449258'
p2753
tp2754
Rp2755
sba(iLocation
Location
p2756
(dp2757
g3
g4
(S'13.7372823'
p2758
tp2759
Rp2760
sg8
g4
(S'51.0452453'
p2761
tp2762
Rp2763
sba(iLocation
Location
p2764
(dp2765
g3
g4
(S'13.8002770'
p2766
tp2767
Rp2768
sg8
g4
(S'50.9708501'
p2769
tp2770
Rp2771
sba(iLocation
Location
p2772
(dp2773
g3
g4
(S'13.8224943'
p2774
tp2775
Rp2776
sg8
g4
(S'51.0070247'
p2777
tp2778
Rp2779
sba(iLocation
Location
p2780
(dp2781
g3
g4
(S'13.7156804'
p2782
tp2783
Rp2784
sg8
g4
(S'51.0371386'
p2785
tp2786
Rp2787
sba(iLocation
Location
p2788
(dp2789
g3
g4
(S'13.7056502'
p2790
tp2791
Rp2792
sg8
g4
(S'51.0424738'
p2793
tp2794
Rp2795
sba(iLocation
Location
p2796
(dp2797
g3
g4
(S'13.7992894'
p2798
tp2799
Rp2800
sg8
g4
(S'51.0349877'
p2801
tp2802
Rp2803
sba(iLocation
Location
p2804
(dp2805
g3
g4
(S'13.6742642'
p2806
tp2807
Rp2808
sg8
g4
(S'50.9999812'
p2809
tp2810
Rp2811
sba(iLocation
Location
p2812
(dp2813
g3
g4
(S'13.6909944'
p2814
tp2815
Rp2816
sg8
g4
(S'51.0183532'
p2817
tp2818
Rp2819
sba(iLocation
Location
p2820
(dp2821
g3
g4
(S'13.7461067'
p2822
tp2823
Rp2824
sg8
g4
(S'51.0571764'
p2825
tp2826
Rp2827
sba(iLocation
Location
p2828
(dp2829
g3
g4
(S'13.7453464'
p2830
tp2831
Rp2832
sg8
g4
(S'51.0598598'
p2833
tp2834
Rp2835
sba(iLocation
Location
p2836
(dp2837
g3
g4
(S'13.7013497'
p2838
tp2839
Rp2840
sg8
g4
(S'51.0336352'
p2841
tp2842
Rp2843
sba(iLocation
Location
p2844
(dp2845
g3
g4
(S'13.7689483'
p2846
tp2847
Rp2848
sg8
g4
(S'51.0136044'
p2849
tp2850
Rp2851
sba(iLocation
Location
p2852
(dp2853
g3
g4
(S'13.7779258'
p2854
tp2855
Rp2856
sg8
g4
(S'51.0160614'
p2857
tp2858
Rp2859
sba(iLocation
Location
p2860
(dp2861
g3
g4
(S'13.7661548'
p2862
tp2863
Rp2864
sg8
g4
(S'51.0701498'
p2865
tp2866
Rp2867
sba(iLocation
Location
p2868
(dp2869
g3
g4
(S'13.7634598'
p2870
tp2871
Rp2872
sg8
g4
(S'51.0397787'
p2873
tp2874
Rp2875
sba(iLocation
Location
p2876
(dp2877
g3
g4
(S'13.6946505'
p2878
tp2879
Rp2880
sg8
g4
(S'51.0818828'
p2881
tp2882
Rp2883
sba(iLocation
Location
p2884
(dp2885
g3
g4
(S'13.7331134'
p2886
tp2887
Rp2888
sg8
g4
(S'51.0427381'
p2889
tp2890
Rp2891
sba(iLocation
Location
p2892
(dp2893
g3
g4
(S'13.7969312'
p2894
tp2895
Rp2896
sg8
g4
(S'51.0092500'
p2897
tp2898
Rp2899
sba(iLocation
Location
p2900
(dp2901
g3
g4
(S'13.7330724'
p2902
tp2903
Rp2904
sg8
g4
(S'51.0762435'
p2905
tp2906
Rp2907
sba(iLocation
Location
p2908
(dp2909
g3
g4
(S'13.6978487'
p2910
tp2911
Rp2912
sg8
g4
(S'51.0841923'
p2913
tp2914
Rp2915
sba(iLocation
Location
p2916
(dp2917
g3
g4
(S'13.8353597'
p2918
tp2919
Rp2920
sg8
g4
(S'51.0150322'
p2921
tp2922
Rp2923
sba(iLocation
Location
p2924
(dp2925
g3
g4
(S'13.8039938'
p2926
tp2927
Rp2928
sg8
g4
(S'51.0241554'
p2929
tp2930
Rp2931
sba(iLocation
Location
p2932
(dp2933
g3
g4
(S'13.8050344'
p2934
tp2935
Rp2936
sg8
g4
(S'51.0053407'
p2937
tp2938
Rp2939
sba(iLocation
Location
p2940
(dp2941
g3
g4
(S'13.7370985'
p2942
tp2943
Rp2944
sg8
g4
(S'51.0709532'
p2945
tp2946
Rp2947
sba(iLocation
Location
p2948
(dp2949
g3
g4
(S'13.7110944'
p2950
tp2951
Rp2952
sg8
g4
(S'51.0321725'
p2953
tp2954
Rp2955
sba(iLocation
Location
p2956
(dp2957
g3
g4
(S'13.6324771'
p2958
tp2959
Rp2960
sg8
g4
(S'51.0407784'
p2961
tp2962
Rp2963
sba(iLocation
Location
p2964
(dp2965
g3
g4
(S'13.8966568'
p2966
tp2967
Rp2968
sg8
g4
(S'50.9586585'
p2969
tp2970
Rp2971
sba(iLocation
Location
p2972
(dp2973
g3
g4
(S'13.7948086'
p2974
tp2975
Rp2976
sg8
g4
(S'51.0374086'
p2977
tp2978
Rp2979
sba(iLocation
Location
p2980
(dp2981
g3
g4
(S'13.7099086'
p2982
tp2983
Rp2984
sg8
g4
(S'51.0301568'
p2985
tp2986
Rp2987
sba(iLocation
Location
p2988
(dp2989
g3
g4
(S'13.7687098'
p2990
tp2991
Rp2992
sg8
g4
(S'51.0828781'
p2993
tp2994
Rp2995
sba(iLocation
Location
p2996
(dp2997
g3
g4
(S'13.6374071'
p2998
tp2999
Rp3000
sg8
g4
(S'51.0663476'
p3001
tp3002
Rp3003
sba(iLocation
Location
p3004
(dp3005
g3
g4
(S'13.6571041'
p3006
tp3007
Rp3008
sg8
g4
(S'51.0323872'
p3009
tp3010
Rp3011
sba(iLocation
Location
p3012
(dp3013
g3
g4
(S'13.7360337'
p3014
tp3015
Rp3016
sg8
g4
(S'51.0998354'
p3017
tp3018
Rp3019
sba(iLocation
Location
p3020
(dp3021
g3
g4
(S'13.7950810'
p3022
tp3023
Rp3024
sg8
g4
(S'51.0283786'
p3025
tp3026
Rp3027
sba(iLocation
Location
p3028
(dp3029
g3
g4
(S'13.7427174'
p3030
tp3031
Rp3032
sg8
g4
(S'51.0720938'
p3033
tp3034
Rp3035
sba(iLocation
Location
p3036
(dp3037
g3
g4
(S'13.7081733'
p3038
tp3039
Rp3040
sg8
g4
(S'51.0315228'
p3041
tp3042
Rp3043
sba(iLocation
Location
p3044
(dp3045
g3
g4
(S'13.8263936'
p3046
tp3047
Rp3048
sg8
g4
(S'51.0637739'
p3049
tp3050
Rp3051
sba(iLocation
Location
p3052
(dp3053
g3
g4
(S'13.7658172'
p3054
tp3055
Rp3056
sg8
g4
(S'51.0819331'
p3057
tp3058
Rp3059
sba(iLocation
Location
p3060
(dp3061
g3
g4
(S'13.6580943'
p3062
tp3063
Rp3064
sg8
g4
(S'50.9947152'
p3065
tp3066
Rp3067
sba(iLocation
Location
p3068
(dp3069
g3
g4
(S'13.8400014'
p3070
tp3071
Rp3072
sg8
g4
(S'51.0462381'
p3073
tp3074
Rp3075
sba(iLocation
Location
p3076
(dp3077
g3
g4
(S'13.7308037'
p3078
tp3079
Rp3080
sg8
g4
(S'51.0287584'
p3081
tp3082
Rp3083
sba(iLocation
Location
p3084
(dp3085
g3
g4
(S'13.7121196'
p3086
tp3087
Rp3088
sg8
g4
(S'51.0318873'
p3089
tp3090
Rp3091
sba(iLocation
Location
p3092
(dp3093
g3
g4
(S'13.7371693'
p3094
tp3095
Rp3096
sg8
g4
(S'51.0349780'
p3097
tp3098
Rp3099
sba(iLocation
Location
p3100
(dp3101
g3
g4
(S'13.7833052'
p3102
tp3103
Rp3104
sg8
g4
(S'51.0595905'
p3105
tp3106
Rp3107
sba(iLocation
Location
p3108
(dp3109
g3
g4
(S'13.8699795'
p3110
tp3111
Rp3112
sg8
g4
(S'51.0125673'
p3113
tp3114
Rp3115
sba(iLocation
Location
p3116
(dp3117
g3
g4
(S'13.7687775'
p3118
tp3119
Rp3120
sg8
g4
(S'51.0829354'
p3121
tp3122
Rp3123
sba(iLocation
Location
p3124
(dp3125
g3
g4
(S'13.7433556'
p3126
tp3127
Rp3128
sg8
g4
(S'51.0598278'
p3129
tp3130
Rp3131
sba(iLocation
Location
p3132
(dp3133
g3
g4
(S'13.8301551'
p3134
tp3135
Rp3136
sg8
g4
(S'51.0222680'
p3137
tp3138
Rp3139
sba(iLocation
Location
p3140
(dp3141
g3
g4
(S'13.6332872'
p3142
tp3143
Rp3144
sg8
g4
(S'51.0047224'
p3145
tp3146
Rp3147
sba(iLocation
Location
p3148
(dp3149
g3
g4
(S'13.8280427'
p3150
tp3151
Rp3152
sg8
g4
(S'51.0808148'
p3153
tp3154
Rp3155
sba(iLocation
Location
p3156
(dp3157
g3
g4
(S'13.8525374'
p3158
tp3159
Rp3160
sg8
g4
(S'51.0114439'
p3161
tp3162
Rp3163
sba(iLocation
Location
p3164
(dp3165
g3
g4
(S'13.7422568'
p3166
tp3167
Rp3168
sg8
g4
(S'51.0435126'
p3169
tp3170
Rp3171
sba(iLocation
Location
p3172
(dp3173
g3
g4
(S'13.7237585'
p3174
tp3175
Rp3176
sg8
g4
(S'50.9802986'
p3177
tp3178
Rp3179
sba(iLocation
Location
p3180
(dp3181
g3
g4
(S'13.7847457'
p3182
tp3183
Rp3184
sg8
g4
(S'51.0158418'
p3185
tp3186
Rp3187
sba(iLocation
Location
p3188
(dp3189
g3
g4
(S'13.6393732'
p3190
tp3191
Rp3192
sg8
g4
(S'51.0839113'
p3193
tp3194
Rp3195
sba(iLocation
Location
p3196
(dp3197
g3
g4
(S'13.6222456'
p3198
tp3199
Rp3200
sg8
g4
(S'50.9746380'
p3201
tp3202
Rp3203
sba(iLocation
Location
p3204
(dp3205
g3
g4
(S'13.7734396'
p3206
tp3207
Rp3208
sg8
g4
(S'51.0435837'
p3209
tp3210
Rp3211
sba(iLocation
Location
p3212
(dp3213
g3
g4
(S'13.7961847'
p3214
tp3215
Rp3216
sg8
g4
(S'51.0334461'
p3217
tp3218
Rp3219
sba(iLocation
Location
p3220
(dp3221
g3
g4
(S'13.7370298'
p3222
tp3223
Rp3224
sg8
g4
(S'51.0633306'
p3225
tp3226
Rp3227
sba(iLocation
Location
p3228
(dp3229
g3
g4
(S'13.7701089'
p3230
tp3231
Rp3232
sg8
g4
(S'51.0971499'
p3233
tp3234
Rp3235
sba(iLocation
Location
p3236
(dp3237
g3
g4
(S'13.7456297'
p3238
tp3239
Rp3240
sg8
g4
(S'51.0519625'
p3241
tp3242
Rp3243
sba(iLocation
Location
p3244
(dp3245
g3
g4
(S'13.7966219'
p3246
tp3247
Rp3248
sg8
g4
(S'51.0244504'
p3249
tp3250
Rp3251
sba(iLocation
Location
p3252
(dp3253
g3
g4
(S'13.7295683'
p3254
tp3255
Rp3256
sg8
g4
(S'51.0302724'
p3257
tp3258
Rp3259
sba(iLocation
Location
p3260
(dp3261
g3
g4
(S'13.7725060'
p3262
tp3263
Rp3264
sg8
g4
(S'51.0540774'
p3265
tp3266
Rp3267
sba(iLocation
Location
p3268
(dp3269
g3
g4
(S'13.6821040'
p3270
tp3271
Rp3272
sg8
g4
(S'51.0180974'
p3273
tp3274
Rp3275
sba(iLocation
Location
p3276
(dp3277
g3
g4
(S'13.7645247'
p3278
tp3279
Rp3280
sg8
g4
(S'51.0737385'
p3281
tp3282
Rp3283
sba(iLocation
Location
p3284
(dp3285
g3
g4
(S'13.7600107'
p3286
tp3287
Rp3288
sg8
g4
(S'51.0686348'
p3289
tp3290
Rp3291
sba(iLocation
Location
p3292
(dp3293
g3
g4
(S'13.7758595'
p3294
tp3295
Rp3296
sg8
g4
(S'51.0698933'
p3297
tp3298
Rp3299
sba(iLocation
Location
p3300
(dp3301
g3
g4
(S'13.6550907'
p3302
tp3303
Rp3304
sg8
g4
(S'51.0098233'
p3305
tp3306
Rp3307
sba(iLocation
Location
p3308
(dp3309
g3
g4
(S'13.7766273'
p3310
tp3311
Rp3312
sg8
g4
(S'51.0539974'
p3313
tp3314
Rp3315
sba(iLocation
Location
p3316
(dp3317
g3
g4
(S'13.7357614'
p3318
tp3319
Rp3320
sg8
g4
(S'51.0622642'
p3321
tp3322
Rp3323
sba(iLocation
Location
p3324
(dp3325
g3
g4
(S'13.8099360'
p3326
tp3327
Rp3328
sg8
g4
(S'51.0516417'
p3329
tp3330
Rp3331
sba(iLocation
Location
p3332
(dp3333
g3
g4
(S'13.8559886'
p3334
tp3335
Rp3336
sg8
g4
(S'51.0399604'
p3337
tp3338
Rp3339
sba(iLocation
Location
p3340
(dp3341
g3
g4
(S'13.8431138'
p3342
tp3343
Rp3344
sg8
g4
(S'50.9811111'
p3345
tp3346
Rp3347
sba(iLocation
Location
p3348
(dp3349
g3
g4
(S'13.6895942'
p3350
tp3351
Rp3352
sg8
g4
(S'51.0595393'
p3353
tp3354
Rp3355
sba(iLocation
Location
p3356
(dp3357
g3
g4
(S'13.7614973'
p3358
tp3359
Rp3360
sg8
g4
(S'51.0174250'
p3361
tp3362
Rp3363
sba(iLocation
Location
p3364
(dp3365
g3
g4
(S'13.8597410'
p3366
tp3367
Rp3368
sg8
g4
(S'50.9734933'
p3369
tp3370
Rp3371
sba(iLocation
Location
p3372
(dp3373
g3
g4
(S'13.6442321'
p3374
tp3375
Rp3376
sg8
g4
(S'51.0757410'
p3377
tp3378
Rp3379
sba(iLocation
Location
p3380
(dp3381
g3
g4
(S'13.6750734'
p3382
tp3383
Rp3384
sg8
g4
(S'51.0123722'
p3385
tp3386
Rp3387
sba(iLocation
Location
p3388
(dp3389
g3
g4
(S'13.6506937'
p3390
tp3391
Rp3392
sg8
g4
(S'51.0010519'
p3393
tp3394
Rp3395
sba(iLocation
Location
p3396
(dp3397
g3
g4
(S'13.8208835'
p3398
tp3399
Rp3400
sg8
g4
(S'51.0297353'
p3401
tp3402
Rp3403
sba(iLocation
Location
p3404
(dp3405
g3
g4
(S'13.7962346'
p3406
tp3407
Rp3408
sg8
g4
(S'50.9960544'
p3409
tp3410
Rp3411
sba(iLocation
Location
p3412
(dp3413
g3
g4
(S'13.7590587'
p3414
tp3415
Rp3416
sg8
g4
(S'51.0719814'
p3417
tp3418
Rp3419
sba(iLocation
Location
p3420
(dp3421
g3
g4
(S'13.7131232'
p3422
tp3423
Rp3424
sg8
g4
(S'50.9928891'
p3425
tp3426
Rp3427
sba(iLocation
Location
p3428
(dp3429
g3
g4
(S'13.7786908'
p3430
tp3431
Rp3432
sg8
g4
(S'51.0164908'
p3433
tp3434
Rp3435
sba(iLocation
Location
p3436
(dp3437
g3
g4
(S'13.6415032'
p3438
tp3439
Rp3440
sg8
g4
(S'50.9876504'
p3441
tp3442
Rp3443
sba(iLocation
Location
p3444
(dp3445
g3
g4
(S'13.5864695'
p3446
tp3447
Rp3448
sg8
g4
(S'51.0308528'
p3449
tp3450
Rp3451
sba(iLocation
Location
p3452
(dp3453
g3
g4
(S'13.8191819'
p3454
tp3455
Rp3456
sg8
g4
(S'50.9777111'
p3457
tp3458
Rp3459
sba(iLocation
Location
p3460
(dp3461
g3
g4
(S'13.7590536'
p3462
tp3463
Rp3464
sg8
g4
(S'51.0545701'
p3465
tp3466
Rp3467
sba(iLocation
Location
p3468
(dp3469
g3
g4
(S'13.6928515'
p3470
tp3471
Rp3472
sg8
g4
(S'51.0463863'
p3473
tp3474
Rp3475
sba(iLocation
Location
p3476
(dp3477
g3
g4
(S'13.7324391'
p3478
tp3479
Rp3480
sg8
g4
(S'51.0401691'
p3481
tp3482
Rp3483
sba(iLocation
Location
p3484
(dp3485
g3
g4
(S'13.8138804'
p3486
tp3487
Rp3488
sg8
g4
(S'51.0291138'
p3489
tp3490
Rp3491
sba(iLocation
Location
p3492
(dp3493
g3
g4
(S'13.7203121'
p3494
tp3495
Rp3496
sg8
g4
(S'51.0871545'
p3497
tp3498
Rp3499
sba(iLocation
Location
p3500
(dp3501
g3
g4
(S'13.7619698'
p3502
tp3503
Rp3504
sg8
g4
(S'51.0176303'
p3505
tp3506
Rp3507
sba(iLocation
Location
p3508
(dp3509
g3
g4
(S'13.7077729'
p3510
tp3511
Rp3512
sg8
g4
(S'51.0936355'
p3513
tp3514
Rp3515
sba(iLocation
Location
p3516
(dp3517
g3
g4
(S'13.7342226'
p3518
tp3519
Rp3520
sg8
g4
(S'51.0778700'
p3521
tp3522
Rp3523
sba(iLocation
Location
p3524
(dp3525
g3
g4
(S'13.8337483'
p3526
tp3527
Rp3528
sg8
g4
(S'51.0007152'
p3529
tp3530
Rp3531
sba(iLocation
Location
p3532
(dp3533
g3
g4
(S'13.7173634'
p3534
tp3535
Rp3536
sg8
g4
(S'51.0683353'
p3537
tp3538
Rp3539
sba(iLocation
Location
p3540
(dp3541
g3
g4
(S'13.7328069'
p3542
tp3543
Rp3544
sg8
g4
(S'51.0876904'
p3545
tp3546
Rp3547
sba(iLocation
Location
p3548
(dp3549
g3
g4
(S'13.6643792'
p3550
tp3551
Rp3552
sg8
g4
(S'51.0498630'
p3553
tp3554
Rp3555
sba(iLocation
Location
p3556
(dp3557
g3
g4
(S'13.8099867'
p3558
tp3559
Rp3560
sg8
g4
(S'50.9739263'
p3561
tp3562
Rp3563
sba(iLocation
Location
p3564
(dp3565
g3
g4
(S'13.7139493'
p3566
tp3567
Rp3568
sg8
g4
(S'51.0302997'
p3569
tp3570
Rp3571
sba(iLocation
Location
p3572
(dp3573
g3
g4
(S'13.7546519'
p3574
tp3575
Rp3576
sg8
g4
(S'51.0512533'
p3577
tp3578
Rp3579
sba(iLocation
Location
p3580
(dp3581
g3
g4
(S'13.7285793'
p3582
tp3583
Rp3584
sg8
g4
(S'51.0858039'
p3585
tp3586
Rp3587
sba(iLocation
Location
p3588
(dp3589
g3
g4
(S'13.7276071'
p3590
tp3591
Rp3592
sg8
g4
(S'51.0033533'
p3593
tp3594
Rp3595
sba(iLocation
Location
p3596
(dp3597
g3
g4
(S'13.7346121'
p3598
tp3599
Rp3600
sg8
g4
(S'51.0402506'
p3601
tp3602
Rp3603
sba(iLocation
Location
p3604
(dp3605
g3
g4
(S'13.6325947'
p3606
tp3607
Rp3608
sg8
g4
(S'50.9810255'
p3609
tp3610
Rp3611
sba(iLocation
Location
p3612
(dp3613
g3
g4
(S'13.8529989'
p3614
tp3615
Rp3616
sg8
g4
(S'50.9801654'
p3617
tp3618
Rp3619
sba(iLocation
Location
p3620
(dp3621
g3
g4
(S'13.6829271'
p3622
tp3623
Rp3624
sg8
g4
(S'51.0957914'
p3625
tp3626
Rp3627
sba(iLocation
Location
p3628
(dp3629
g3
g4
(S'13.8224294'
p3630
tp3631
Rp3632
sg8
g4
(S'51.0044513'
p3633
tp3634
Rp3635
sba(iLocation
Location
p3636
(dp3637
g3
g4
(S'13.6961292'
p3638
tp3639
Rp3640
sg8
g4
(S'50.9771080'
p3641
tp3642
Rp3643
sba(iLocation
Location
p3644
(dp3645
g3
g4
(S'13.7671406'
p3646
tp3647
Rp3648
sg8
g4
(S'51.0439135'
p3649
tp3650
Rp3651
sba(iLocation
Location
p3652
(dp3653
g3
g4
(S'13.6644328'
p3654
tp3655
Rp3656
sg8
g4
(S'51.0486654'
p3657
tp3658
Rp3659
sba(iLocation
Location
p3660
(dp3661
g3
g4
(S'13.6754150'
p3662
tp3663
Rp3664
sg8
g4
(S'51.0178363'
p3665
tp3666
Rp3667
sba(iLocation
Location
p3668
(dp3669
g3
g4
(S'13.7191697'
p3670
tp3671
Rp3672
sg8
g4
(S'51.0491173'
p3673
tp3674
Rp3675
sba(iLocation
Location
p3676
(dp3677
g3
g4
(S'13.5905641'
p3678
tp3679
Rp3680
sg8
g4
(S'51.0383349'
p3681
tp3682
Rp3683
sba(iLocation
Location
p3684
(dp3685
g3
g4
(S'13.7300331'
p3686
tp3687
Rp3688
sg8
g4
(S'51.0270558'
p3689
tp3690
Rp3691
sba(iLocation
Location
p3692
(dp3693
g3
g4
(S'13.6479228'
p3694
tp3695
Rp3696
sg8
g4
(S'50.9945290'
p3697
tp3698
Rp3699
sba(iLocation
Location
p3700
(dp3701
g3
g4
(S'13.7292623'
p3702
tp3703
Rp3704
sg8
g4
(S'51.0704965'
p3705
tp3706
Rp3707
sba(iLocation
Location
p3708
(dp3709
g3
g4
(S'13.7192106'
p3710
tp3711
Rp3712
sg8
g4
(S'51.0961857'
p3713
tp3714
Rp3715
sba(iLocation
Location
p3716
(dp3717
g3
g4
(S'13.7368504'
p3718
tp3719
Rp3720
sg8
g4
(S'51.0491731'
p3721
tp3722
Rp3723
sba(iLocation
Location
p3724
(dp3725
g3
g4
(S'13.7738376'
p3726
tp3727
Rp3728
sg8
g4
(S'51.0182040'
p3729
tp3730
Rp3731
sba(iLocation
Location
p3732
(dp3733
g3
g4
(S'13.6793491'
p3734
tp3735
Rp3736
sg8
g4
(S'51.0531919'
p3737
tp3738
Rp3739
sba(iLocation
Location
p3740
(dp3741
g3
g4
(S'13.7471612'
p3742
tp3743
Rp3744
sg8
g4
(S'51.0606406'
p3745
tp3746
Rp3747
sba(iLocation
Location
p3748
(dp3749
g3
g4
(S'13.6608918'
p3750
tp3751
Rp3752
sg8
g4
(S'51.0989720'
p3753
tp3754
Rp3755
sba(iLocation
Location
p3756
(dp3757
g3
g4
(S'13.6797926'
p3758
tp3759
Rp3760
sg8
g4
(S'51.0191299'
p3761
tp3762
Rp3763
sba(iLocation
Location
p3764
(dp3765
g3
g4
(S'13.6896268'
p3766
tp3767
Rp3768
sg8
g4
(S'51.0701895'
p3769
tp3770
Rp3771
sba(iLocation
Location
p3772
(dp3773
g3
g4
(S'13.8049736'
p3774
tp3775
Rp3776
sg8
g4
(S'51.0048635'
p3777
tp3778
Rp3779
sba(iLocation
Location
p3780
(dp3781
g3
g4
(S'13.8291406'
p3782
tp3783
Rp3784
sg8
g4
(S'51.0138230'
p3785
tp3786
Rp3787
sba(iLocation
Location
p3788
(dp3789
g3
g4
(S'13.7157005'
p3790
tp3791
Rp3792
sg8
g4
(S'51.0685686'
p3793
tp3794
Rp3795
sba(iLocation
Location
p3796
(dp3797
g3
g4
(S'13.6800544'
p3798
tp3799
Rp3800
sg8
g4
(S'51.0614637'
p3801
tp3802
Rp3803
sba(iLocation
Location
p3804
(dp3805
g3
g4
(S'13.7827576'
p3806
tp3807
Rp3808
sg8
g4
(S'51.0076674'
p3809
tp3810
Rp3811
sba(iLocation
Location
p3812
(dp3813
g3
g4
(S'13.7695559'
p3814
tp3815
Rp3816
sg8
g4
(S'51.0371480'
p3817
tp3818
Rp3819
sba(iLocation
Location
p3820
(dp3821
g3
g4
(S'13.8267261'
p3822
tp3823
Rp3824
sg8
g4
(S'51.0574452'
p3825
tp3826
Rp3827
sba(iLocation
Location
p3828
(dp3829
g3
g4
(S'13.7443878'
p3830
tp3831
Rp3832
sg8
g4
(S'51.0290871'
p3833
tp3834
Rp3835
sba(iLocation
Location
p3836
(dp3837
g3
g4
(S'13.8112487'
p3838
tp3839
Rp3840
sg8
g4
(S'51.0222838'
p3841
tp3842
Rp3843
sba(iLocation
Location
p3844
(dp3845
g3
g4
(S'13.7407626'
p3846
tp3847
Rp3848
sg8
g4
(S'51.0153477'
p3849
tp3850
Rp3851
sba(iLocation
Location
p3852
(dp3853
g3
g4
(S'13.7585625'
p3854
tp3855
Rp3856
sg8
g4
(S'51.0737036'
p3857
tp3858
Rp3859
sba(iLocation
Location
p3860
(dp3861
g3
g4
(S'13.8733158'
p3862
tp3863
Rp3864
sg8
g4
(S'51.0709295'
p3865
tp3866
Rp3867
sba(iLocation
Location
p3868
(dp3869
g3
g4
(S'13.6733540'
p3870
tp3871
Rp3872
sg8
g4
(S'51.0855973'
p3873
tp3874
Rp3875
sba(iLocation
Location
p3876
(dp3877
g3
g4
(S'13.7858534'
p3878
tp3879
Rp3880
sg8
g4
(S'51.0015870'
p3881
tp3882
Rp3883
sba(iLocation
Location
p3884
(dp3885
g3
g4
(S'13.7094164'
p3886
tp3887
Rp3888
sg8
g4
(S'51.0572314'
p3889
tp3890
Rp3891
sba(iLocation
Location
p3892
(dp3893
g3
g4
(S'13.5839515'
p3894
tp3895
Rp3896
sg8
g4
(S'50.9831248'
p3897
tp3898
Rp3899
sba(iLocation
Location
p3900
(dp3901
g3
g4
(S'13.7336180'
p3902
tp3903
Rp3904
sg8
g4
(S'51.0471220'
p3905
tp3906
Rp3907
sba(iLocation
Location
p3908
(dp3909
g3
g4
(S'13.7421581'
p3910
tp3911
Rp3912
sg8
g4
(S'51.0649796'
p3913
tp3914
Rp3915
sba(iLocation
Location
p3916
(dp3917
g3
g4
(S'13.8355426'
p3918
tp3919
Rp3920
sg8
g4
(S'51.0428660'
p3921
tp3922
Rp3923
sba(iLocation
Location
p3924
(dp3925
g3
g4
(S'13.8486255'
p3926
tp3927
Rp3928
sg8
g4
(S'51.0042623'
p3929
tp3930
Rp3931
sba(iLocation
Location
p3932
(dp3933
g3
g4
(S'13.8791464'
p3934
tp3935
Rp3936
sg8
g4
(S'50.9732855'
p3937
tp3938
Rp3939
sba(iLocation
Location
p3940
(dp3941
g3
g4
(S'13.8279101'
p3942
tp3943
Rp3944
sg8
g4
(S'51.0584312'
p3945
tp3946
Rp3947
sba(iLocation
Location
p3948
(dp3949
g3
g4
(S'13.7969946'
p3950
tp3951
Rp3952
sg8
g4
(S'51.0084998'
p3953
tp3954
Rp3955
sba(iLocation
Location
p3956
(dp3957
g3
g4
(S'13.7549721'
p3958
tp3959
Rp3960
sg8
g4
(S'51.0330889'
p3961
tp3962
Rp3963
sba(iLocation
Location
p3964
(dp3965
g3
g4
(S'13.6624314'
p3966
tp3967
Rp3968
sg8
g4
(S'51.0989662'
p3969
tp3970
Rp3971
sba(iLocation
Location
p3972
(dp3973
g3
g4
(S'13.7721539'
p3974
tp3975
Rp3976
sg8
g4
(S'51.0173312'
p3977
tp3978
Rp3979
sba(iLocation
Location
p3980
(dp3981
g3
g4
(S'13.7937666'
p3982
tp3983
Rp3984
sg8
g4
(S'50.9897647'
p3985
tp3986
Rp3987
sba(iLocation
Location
p3988
(dp3989
g3
g4
(S'13.7352438'
p3990
tp3991
Rp3992
sg8
g4
(S'51.0524953'
p3993
tp3994
Rp3995
sba(iLocation
Location
p3996
(dp3997
g3
g4
(S'13.7743440'
p3998
tp3999
Rp4000
sg8
g4
(S'51.0173732'
p4001
tp4002
Rp4003
sba(iLocation
Location
p4004
(dp4005
g3
g4
(S'13.7710235'
p4006
tp4007
Rp4008
sg8
g4
(S'51.0195687'
p4009
tp4010
Rp4011
sba(iLocation
Location
p4012
(dp4013
g3
g4
(S'13.7678564'
p4014
tp4015
Rp4016
sg8
g4
(S'51.0097816'
p4017
tp4018
Rp4019
sba(iLocation
Location
p4020
(dp4021
g3
g4
(S'13.7833617'
p4022
tp4023
Rp4024
sg8
g4
(S'51.0165711'
p4025
tp4026
Rp4027
sba(iLocation
Location
p4028
(dp4029
g3
g4
(S'13.7230379'
p4030
tp4031
Rp4032
sg8
g4
(S'51.0288127'
p4033
tp4034
Rp4035
sba(iLocation
Location
p4036
(dp4037
g3
g4
(S'13.8010432'
p4038
tp4039
Rp4040
sg8
g4
(S'50.9911133'
p4041
tp4042
Rp4043
sba(iLocation
Location
p4044
(dp4045
g3
g4
(S'13.6908918'
p4046
tp4047
Rp4048
sg8
g4
(S'50.9945892'
p4049
tp4050
Rp4051
sba(iLocation
Location
p4052
(dp4053
g3
g4
(S'13.6569943'
p4054
tp4055
Rp4056
sg8
g4
(S'51.0036670'
p4057
tp4058
Rp4059
sba(iLocation
Location
p4060
(dp4061
g3
g4
(S'13.7418305'
p4062
tp4063
Rp4064
sg8
g4
(S'51.0499844'
p4065
tp4066
Rp4067
sba(iLocation
Location
p4068
(dp4069
g3
g4
(S'13.7363946'
p4070
tp4071
Rp4072
sg8
g4
(S'51.0197238'
p4073
tp4074
Rp4075
sba(iLocation
Location
p4076
(dp4077
g3
g4
(S'13.7877775'
p4078
tp4079
Rp4080
sg8
g4
(S'51.0189629'
p4081
tp4082
Rp4083
sba(iLocation
Location
p4084
(dp4085
g3
g4
(S'13.7801478'
p4086
tp4087
Rp4088
sg8
g4
(S'51.0345402'
p4089
tp4090
Rp4091
sba(iLocation
Location
p4092
(dp4093
g3
g4
(S'13.7146209'
p4094
tp4095
Rp4096
sg8
g4
(S'51.0585163'
p4097
tp4098
Rp4099
sba(iLocation
Location
p4100
(dp4101
g3
g4
(S'13.6286424'
p4102
tp4103
Rp4104
sg8
g4
(S'51.1025458'
p4105
tp4106
Rp4107
sba(iLocation
Location
p4108
(dp4109
g3
g4
(S'13.6954492'
p4110
tp4111
Rp4112
sg8
g4
(S'51.0696698'
p4113
tp4114
Rp4115
sba(iLocation
Location
p4116
(dp4117
g3
g4
(S'13.6256609'
p4118
tp4119
Rp4120
sg8
g4
(S'50.9780961'
p4121
tp4122
Rp4123
sba(iLocation
Location
p4124
(dp4125
g3
g4
(S'13.7910651'
p4126
tp4127
Rp4128
sg8
g4
(S'51.0210937'
p4129
tp4130
Rp4131
sba(iLocation
Location
p4132
(dp4133
g3
g4
(S'13.6185085'
p4134
tp4135
Rp4136
sg8
g4
(S'51.0230397'
p4137
tp4138
Rp4139
sba(iLocation
Location
p4140
(dp4141
g3
g4
(S'13.5934931'
p4142
tp4143
Rp4144
sg8
g4
(S'51.0339326'
p4145
tp4146
Rp4147
sba(iLocation
Location
p4148
(dp4149
g3
g4
(S'13.7971650'
p4150
tp4151
Rp4152
sg8
g4
(S'51.0660973'
p4153
tp4154
Rp4155
sba(iLocation
Location
p4156
(dp4157
g3
g4
(S'13.7878727'
p4158
tp4159
Rp4160
sg8
g4
(S'51.0396750'
p4161
tp4162
Rp4163
sba(iLocation
Location
p4164
(dp4165
g3
g4
(S'13.7058629'
p4166
tp4167
Rp4168
sg8
g4
(S'51.0189705'
p4169
tp4170
Rp4171
sba(iLocation
Location
p4172
(dp4173
g3
g4
(S'13.7038018'
p4174
tp4175
Rp4176
sg8
g4
(S'51.0507539'
p4177
tp4178
Rp4179
sba(iLocation
Location
p4180
(dp4181
g3
g4
(S'13.7675672'
p4182
tp4183
Rp4184
sg8
g4
(S'50.9881048'
p4185
tp4186
Rp4187
sba(iLocation
Location
p4188
(dp4189
g3
g4
(S'13.7963471'
p4190
tp4191
Rp4192
sg8
g4
(S'50.9871175'
p4193
tp4194
Rp4195
sba(iLocation
Location
p4196
(dp4197
g3
g4
(S'13.8182795'
p4198
tp4199
Rp4200
sg8
g4
(S'51.0291890'
p4201
tp4202
Rp4203
sba(iLocation
Location
p4204
(dp4205
g3
g4
(S'13.7498196'
p4206
tp4207
Rp4208
sg8
g4
(S'51.0524080'
p4209
tp4210
Rp4211
sba(iLocation
Location
p4212
(dp4213
g3
g4
(S'13.7833310'
p4214
tp4215
Rp4216
sg8
g4
(S'51.0358241'
p4217
tp4218
Rp4219
sba(iLocation
Location
p4220
(dp4221
g3
g4
(S'13.7545061'
p4222
tp4223
Rp4224
sg8
g4
(S'51.0704713'
p4225
tp4226
Rp4227
sba(iLocation
Location
p4228
(dp4229
g3
g4
(S'13.6470243'
p4230
tp4231
Rp4232
sg8
g4
(S'51.0265614'
p4233
tp4234
Rp4235
sba(iLocation
Location
p4236
(dp4237
g3
g4
(S'13.6686659'
p4238
tp4239
Rp4240
sg8
g4
(S'51.0458165'
p4241
tp4242
Rp4243
sba(iLocation
Location
p4244
(dp4245
g3
g4
(S'13.7217297'
p4246
tp4247
Rp4248
sg8
g4
(S'51.0859152'
p4249
tp4250
Rp4251
sba(iLocation
Location
p4252
(dp4253
g3
g4
(S'13.7241627'
p4254
tp4255
Rp4256
sg8
g4
(S'51.0759020'
p4257
tp4258
Rp4259
sba(iLocation
Location
p4260
(dp4261
g3
g4
(S'13.6926966'
p4262
tp4263
Rp4264
sg8
g4
(S'51.0239028'
p4265
tp4266
Rp4267
sba(iLocation
Location
p4268
(dp4269
g3
g4
(S'13.6347654'
p4270
tp4271
Rp4272
sg8
g4
(S'50.9625170'
p4273
tp4274
Rp4275
sba(iLocation
Location
p4276
(dp4277
g3
g4
(S'13.6510128'
p4278
tp4279
Rp4280
sg8
g4
(S'50.9960453'
p4281
tp4282
Rp4283
sba(iLocation
Location
p4284
(dp4285
g3
g4
(S'13.6785427'
p4286
tp4287
Rp4288
sg8
g4
(S'51.0434332'
p4289
tp4290
Rp4291
sba(iLocation
Location
p4292
(dp4293
g3
g4
(S'13.7510916'
p4294
tp4295
Rp4296
sg8
g4
(S'51.0289781'
p4297
tp4298
Rp4299
sba(iLocation
Location
p4300
(dp4301
g3
g4
(S'13.7795969'
p4302
tp4303
Rp4304
sg8
g4
(S'51.0199250'
p4305
tp4306
Rp4307
sba(iLocation
Location
p4308
(dp4309
g3
g4
(S'13.8032367'
p4310
tp4311
Rp4312
sg8
g4
(S'51.0331787'
p4313
tp4314
Rp4315
sba(iLocation
Location
p4316
(dp4317
g3
g4
(S'13.7301484'
p4318
tp4319
Rp4320
sg8
g4
(S'51.0307468'
p4321
tp4322
Rp4323
sba(iLocation
Location
p4324
(dp4325
g3
g4
(S'13.8523618'
p4326
tp4327
Rp4328
sg8
g4
(S'50.9779943'
p4329
tp4330
Rp4331
sba(iLocation
Location
p4332
(dp4333
g3
g4
(S'13.8957641'
p4334
tp4335
Rp4336
sg8
g4
(S'51.0309517'
p4337
tp4338
Rp4339
sba(iLocation
Location
p4340
(dp4341
g3
g4
(S'13.8820632'
p4342
tp4343
Rp4344
sg8
g4
(S'51.0115301'
p4345
tp4346
Rp4347
sba(iLocation
Location
p4348
(dp4349
g3
g4
(S'13.7685973'
p4350
tp4351
Rp4352
sg8
g4
(S'51.0084764'
p4353
tp4354
Rp4355
sba(iLocation
Location
p4356
(dp4357
g3
g4
(S'13.7505251'
p4358
tp4359
Rp4360
sg8
g4
(S'51.0287276'
p4361
tp4362
Rp4363
sba(iLocation
Location
p4364
(dp4365
g3
g4
(S'13.8007442'
p4366
tp4367
Rp4368
sg8
g4
(S'50.9943660'
p4369
tp4370
Rp4371
sba(iLocation
Location
p4372
(dp4373
g3
g4
(S'13.7815532'
p4374
tp4375
Rp4376
sg8
g4
(S'51.0784923'
p4377
tp4378
Rp4379
sba(iLocation
Location
p4380
(dp4381
g3
g4
(S'13.7894953'
p4382
tp4383
Rp4384
sg8
g4
(S'50.9974641'
p4385
tp4386
Rp4387
sba(iLocation
Location
p4388
(dp4389
g3
g4
(S'13.7344131'
p4390
tp4391
Rp4392
sg8
g4
(S'51.0545823'
p4393
tp4394
Rp4395
sba(iLocation
Location
p4396
(dp4397
g3
g4
(S'13.6467584'
p4398
tp4399
Rp4400
sg8
g4
(S'50.9927456'
p4401
tp4402
Rp4403
sba(iLocation
Location
p4404
(dp4405
g3
g4
(S'13.7946923'
p4406
tp4407
Rp4408
sg8
g4
(S'51.0094420'
p4409
tp4410
Rp4411
sba(iLocation
Location
p4412
(dp4413
g3
g4
(S'13.6362689'
p4414
tp4415
Rp4416
sg8
g4
(S'51.0679494'
p4417
tp4418
Rp4419
sba(iLocation
Location
p4420
(dp4421
g3
g4
(S'13.7200748'
p4422
tp4423
Rp4424
sg8
g4
(S'51.0473765'
p4425
tp4426
Rp4427
sba(iLocation
Location
p4428
(dp4429
g3
g4
(S'13.7922476'
p4430
tp4431
Rp4432
sg8
g4
(S'51.0640630'
p4433
tp4434
Rp4435
sba(iLocation
Location
p4436
(dp4437
g3
g4
(S'13.7667006'
p4438
tp4439
Rp4440
sg8
g4
(S'51.0206935'
p4441
tp4442
Rp4443
sba(iLocation
Location
p4444
(dp4445
g3
g4
(S'13.7484299'
p4446
tp4447
Rp4448
sg8
g4
(S'51.0538587'
p4449
tp4450
Rp4451
sba(iLocation
Location
p4452
(dp4453
g3
g4
(S'13.6794170'
p4454
tp4455
Rp4456
sg8
g4
(S'51.0458326'
p4457
tp4458
Rp4459
sba(iLocation
Location
p4460
(dp4461
g3
g4
(S'13.8261591'
p4462
tp4463
Rp4464
sg8
g4
(S'51.0057475'
p4465
tp4466
Rp4467
sba(iLocation
Location
p4468
(dp4469
g3
g4
(S'13.6262210'
p4470
tp4471
Rp4472
sg8
g4
(S'50.9781832'
p4473
tp4474
Rp4475
sba(iLocation
Location
p4476
(dp4477
g3
g4
(S'13.7320463'
p4478
tp4479
Rp4480
sg8
g4
(S'51.0772317'
p4481
tp4482
Rp4483
sba(iLocation
Location
p4484
(dp4485
g3
g4
(S'13.7398999'
p4486
tp4487
Rp4488
sg8
g4
(S'51.0569101'
p4489
tp4490
Rp4491
sba(iLocation
Location
p4492
(dp4493
g3
g4
(S'13.8566661'
p4494
tp4495
Rp4496
sg8
g4
(S'50.9786457'
p4497
tp4498
Rp4499
sba(iLocation
Location
p4500
(dp4501
g3
g4
(S'13.7371519'
p4502
tp4503
Rp4504
sg8
g4
(S'51.0920756'
p4505
tp4506
Rp4507
sba(iLocation
Location
p4508
(dp4509
g3
g4
(S'13.5848539'
p4510
tp4511
Rp4512
sg8
g4
(S'50.9830482'
p4513
tp4514
Rp4515
sba(iLocation
Location
p4516
(dp4517
g3
g4
(S'13.6991150'
p4518
tp4519
Rp4520
sg8
g4
(S'51.0982411'
p4521
tp4522
Rp4523
sba(iLocation
Location
p4524
(dp4525
g3
g4
(S'13.7885681'
p4526
tp4527
Rp4528
sg8
g4
(S'51.0048874'
p4529
tp4530
Rp4531
sba(iLocation
Location
p4532
(dp4533
g3
g4
(S'13.8816560'
p4534
tp4535
Rp4536
sg8
g4
(S'51.0825389'
p4537
tp4538
Rp4539
sba(iLocation
Location
p4540
(dp4541
g3
g4
(S'13.6993599'
p4542
tp4543
Rp4544
sg8
g4
(S'51.0798413'
p4545
tp4546
Rp4547
sba(iLocation
Location
p4548
(dp4549
g3
g4
(S'13.8096322'
p4550
tp4551
Rp4552
sg8
g4
(S'51.0604421'
p4553
tp4554
Rp4555
sba(iLocation
Location
p4556
(dp4557
g3
g4
(S'13.8947465'
p4558
tp4559
Rp4560
sg8
g4
(S'51.0324846'
p4561
tp4562
Rp4563
sba(iLocation
Location
p4564
(dp4565
g3
g4
(S'13.7386549'
p4566
tp4567
Rp4568
sg8
g4
(S'51.0536564'
p4569
tp4570
Rp4571
sba(iLocation
Location
p4572
(dp4573
g3
g4
(S'13.8473423'
p4574
tp4575
Rp4576
sg8
g4
(S'51.0590356'
p4577
tp4578
Rp4579
sba(iLocation
Location
p4580
(dp4581
g3
g4
(S'13.6474456'
p4582
tp4583
Rp4584
sg8
g4
(S'50.9950532'
p4585
tp4586
Rp4587
sba(iLocation
Location
p4588
(dp4589
g3
g4
(S'13.7259175'
p4590
tp4591
Rp4592
sg8
g4
(S'51.0387114'
p4593
tp4594
Rp4595
sba(iLocation
Location
p4596
(dp4597
g3
g4
(S'13.8338617'
p4598
tp4599
Rp4600
sg8
g4
(S'51.0611953'
p4601
tp4602
Rp4603
sba(iLocation
Location
p4604
(dp4605
g3
g4
(S'13.6925025'
p4606
tp4607
Rp4608
sg8
g4
(S'51.0698529'
p4609
tp4610
Rp4611
sba(iLocation
Location
p4612
(dp4613
g3
g4
(S'13.6721379'
p4614
tp4615
Rp4616
sg8
g4
(S'50.9908891'
p4617
tp4618
Rp4619
sba(iLocation
Location
p4620
(dp4621
g3
g4
(S'13.8038014'
p4622
tp4623
Rp4624
sg8
g4
(S'51.0237229'
p4625
tp4626
Rp4627
sba(iLocation
Location
p4628
(dp4629
g3
g4
(S'13.8200755'
p4630
tp4631
Rp4632
sg8
g4
(S'51.0334536'
p4633
tp4634
Rp4635
sba(iLocation
Location
p4636
(dp4637
g3
g4
(S'13.7296741'
p4638
tp4639
Rp4640
sg8
g4
(S'51.0800770'
p4641
tp4642
Rp4643
sba(iLocation
Location
p4644
(dp4645
g3
g4
(S'13.6501681'
p4646
tp4647
Rp4648
sg8
g4
(S'50.9875671'
p4649
tp4650
Rp4651
sba(iLocation
Location
p4652
(dp4653
g3
g4
(S'13.8719576'
p4654
tp4655
Rp4656
sg8
g4
(S'51.0107921'
p4657
tp4658
Rp4659
sba(iLocation
Location
p4660
(dp4661
g3
g4
(S'13.6985341'
p4662
tp4663
Rp4664
sg8
g4
(S'51.0298468'
p4665
tp4666
Rp4667
sba(iLocation
Location
p4668
(dp4669
g3
g4
(S'13.7625356'
p4670
tp4671
Rp4672
sg8
g4
(S'51.0622915'
p4673
tp4674
Rp4675
sba(iLocation
Location
p4676
(dp4677
g3
g4
(S'13.7277802'
p4678
tp4679
Rp4680
sg8
g4
(S'50.9944201'
p4681
tp4682
Rp4683
sba(iLocation
Location
p4684
(dp4685
g3
g4
(S'13.7237049'
p4686
tp4687
Rp4688
sg8
g4
(S'51.0891621'
p4689
tp4690
Rp4691
sba(iLocation
Location
p4692
(dp4693
g3
g4
(S'13.7374707'
p4694
tp4695
Rp4696
sg8
g4
(S'51.0619755'
p4697
tp4698
Rp4699
sba(iLocation
Location
p4700
(dp4701
g3
g4
(S'13.7397296'
p4702
tp4703
Rp4704
sg8
g4
(S'51.0412293'
p4705
tp4706
Rp4707
sba(iLocation
Location
p4708
(dp4709
g3
g4
(S'13.5992131'
p4710
tp4711
Rp4712
sg8
g4
(S'51.0844940'
p4713
tp4714
Rp4715
sba(iLocation
Location
p4716
(dp4717
g3
g4
(S'13.6606009'
p4718
tp4719
Rp4720
sg8
g4
(S'50.9865666'
p4721
tp4722
Rp4723
sba(iLocation
Location
p4724
(dp4725
g3
g4
(S'13.7543811'
p4726
tp4727
Rp4728
sg8
g4
(S'51.0286826'
p4729
tp4730
Rp4731
sba(iLocation
Location
p4732
(dp4733
g3
g4
(S'13.8087794'
p4734
tp4735
Rp4736
sg8
g4
(S'50.9637686'
p4737
tp4738
Rp4739
sba(iLocation
Location
p4740
(dp4741
g3
g4
(S'13.8268047'
p4742
tp4743
Rp4744
sg8
g4
(S'51.0458016'
p4745
tp4746
Rp4747
sba(iLocation
Location
p4748
(dp4749
g3
g4
(S'13.7660358'
p4750
tp4751
Rp4752
sg8
g4
(S'51.0482908'
p4753
tp4754
Rp4755
sba(iLocation
Location
p4756
(dp4757
g3
g4
(S'13.6250604'
p4758
tp4759
Rp4760
sg8
g4
(S'50.9772895'
p4761
tp4762
Rp4763
sba(iLocation
Location
p4764
(dp4765
g3
g4
(S'13.7742405'
p4766
tp4767
Rp4768
sg8
g4
(S'51.0124682'
p4769
tp4770
Rp4771
sba(iLocation
Location
p4772
(dp4773
g3
g4
(S'13.8528791'
p4774
tp4775
Rp4776
sg8
g4
(S'50.9897374'
p4777
tp4778
Rp4779
sba(iLocation
Location
p4780
(dp4781
g3
g4
(S'13.6971847'
p4782
tp4783
Rp4784
sg8
g4
(S'51.0415640'
p4785
tp4786
Rp4787
sba(iLocation
Location
p4788
(dp4789
g3
g4
(S'13.8116008'
p4790
tp4791
Rp4792
sg8
g4
(S'51.0304200'
p4793
tp4794
Rp4795
sba(iLocation
Location
p4796
(dp4797
g3
g4
(S'13.7651137'
p4798
tp4799
Rp4800
sg8
g4
(S'51.0464563'
p4801
tp4802
Rp4803
sba(iLocation
Location
p4804
(dp4805
g3
g4
(S'13.7658683'
p4806
tp4807
Rp4808
sg8
g4
(S'51.0397104'
p4809
tp4810
Rp4811
sba(iLocation
Location
p4812
(dp4813
g3
g4
(S'13.7418702'
p4814
tp4815
Rp4816
sg8
g4
(S'51.0644141'
p4817
tp4818
Rp4819
sba(iLocation
Location
p4820
(dp4821
g3
g4
(S'13.5879661'
p4822
tp4823
Rp4824
sg8
g4
(S'51.0328338'
p4825
tp4826
Rp4827
sba(iLocation
Location
p4828
(dp4829
g3
g4
(S'13.7339852'
p4830
tp4831
Rp4832
sg8
g4
(S'51.0535347'
p4833
tp4834
Rp4835
sba(iLocation
Location
p4836
(dp4837
g3
g4
(S'13.6840712'
p4838
tp4839
Rp4840
sg8
g4
(S'51.0458281'
p4841
tp4842
Rp4843
sba(iLocation
Location
p4844
(dp4845
g3
g4
(S'13.6624244'
p4846
tp4847
Rp4848
sg8
g4
(S'51.0492974'
p4849
tp4850
Rp4851
sba(iLocation
Location
p4852
(dp4853
g3
g4
(S'13.7089849'
p4854
tp4855
Rp4856
sg8
g4
(S'51.0776917'
p4857
tp4858
Rp4859
sba(iLocation
Location
p4860
(dp4861
g3
g4
(S'13.7883070'
p4862
tp4863
Rp4864
sg8
g4
(S'51.0369379'
p4865
tp4866
Rp4867
sba(iLocation
Location
p4868
(dp4869
g3
g4
(S'13.7066300'
p4870
tp4871
Rp4872
sg8
g4
(S'51.0264176'
p4873
tp4874
Rp4875
sba(iLocation
Location
p4876
(dp4877
g3
g4
(S'13.7183058'
p4878
tp4879
Rp4880
sg8
g4
(S'51.0341349'
p4881
tp4882
Rp4883
sba(iLocation
Location
p4884
(dp4885
g3
g4
(S'13.8534606'
p4886
tp4887
Rp4888
sg8
g4
(S'50.9980879'
p4889
tp4890
Rp4891
sba(iLocation
Location
p4892
(dp4893
g3
g4
(S'13.7469887'
p4894
tp4895
Rp4896
sg8
g4
(S'51.0753908'
p4897
tp4898
Rp4899
sba(iLocation
Location
p4900
(dp4901
g3
g4
(S'13.6809421'
p4902
tp4903
Rp4904
sg8
g4
(S'51.0293414'
p4905
tp4906
Rp4907
sba(iLocation
Location
p4908
(dp4909
g3
g4
(S'13.7280547'
p4910
tp4911
Rp4912
sg8
g4
(S'51.1002739'
p4913
tp4914
Rp4915
sba(iLocation
Location
p4916
(dp4917
g3
g4
(S'13.7932925'
p4918
tp4919
Rp4920
sg8
g4
(S'51.0282746'
p4921
tp4922
Rp4923
sba(iLocation
Location
p4924
(dp4925
g3
g4
(S'13.7699829'
p4926
tp4927
Rp4928
sg8
g4
(S'51.0390434'
p4929
tp4930
Rp4931
sba(iLocation
Location
p4932
(dp4933
g3
g4
(S'13.7007138'
p4934
tp4935
Rp4936
sg8
g4
(S'51.0739089'
p4937
tp4938
Rp4939
sba(iLocation
Location
p4940
(dp4941
g3
g4
(S'13.6636818'
p4942
tp4943
Rp4944
sg8
g4
(S'51.0504989'
p4945
tp4946
Rp4947
sba(iLocation
Location
p4948
(dp4949
g3
g4
(S'13.7283449'
p4950
tp4951
Rp4952
sg8
g4
(S'51.1019122'
p4953
tp4954
Rp4955
sba(iLocation
Location
p4956
(dp4957
g3
g4
(S'13.5836517'
p4958
tp4959
Rp4960
sg8
g4
(S'51.0016292'
p4961
tp4962
Rp4963
sba(iLocation
Location
p4964
(dp4965
g3
g4
(S'13.7999865'
p4966
tp4967
Rp4968
sg8
g4
(S'50.9972181'
p4969
tp4970
Rp4971
sba(iLocation
Location
p4972
(dp4973
g3
g4
(S'13.6888956'
p4974
tp4975
Rp4976
sg8
g4
(S'51.0282469'
p4977
tp4978
Rp4979
sba(iLocation
Location
p4980
(dp4981
g3
g4
(S'13.7002259'
p4982
tp4983
Rp4984
sg8
g4
(S'51.0501018'
p4985
tp4986
Rp4987
sba(iLocation
Location
p4988
(dp4989
g3
g4
(S'13.6658216'
p4990
tp4991
Rp4992
sg8
g4
(S'51.0512854'
p4993
tp4994
Rp4995
sba(iLocation
Location
p4996
(dp4997
g3
g4
(S'13.7351307'
p4998
tp4999
Rp5000
sg8
g4
(S'51.0878509'
p5001
tp5002
Rp5003
sba(iLocation
Location
p5004
(dp5005
g3
g4
(S'13.8556690'
p5006
tp5007
Rp5008
sg8
g4
(S'50.9685005'
p5009
tp5010
Rp5011
sba(iLocation
Location
p5012
(dp5013
g3
g4
(S'13.6880838'
p5014
tp5015
Rp5016
sg8
g4
(S'51.0117327'
p5017
tp5018
Rp5019
sba(iLocation
Location
p5020
(dp5021
g3
g4
(S'13.7394937'
p5022
tp5023
Rp5024
sg8
g4
(S'51.0418804'
p5025
tp5026
Rp5027
sba(iLocation
Location
p5028
(dp5029
g3
g4
(S'13.7199173'
p5030
tp5031
Rp5032
sg8
g4
(S'51.0002019'
p5033
tp5034
Rp5035
sba(iLocation
Location
p5036
(dp5037
g3
g4
(S'13.6972565'
p5038
tp5039
Rp5040
sg8
g4
(S'51.0982869'
p5041
tp5042
Rp5043
sba(iLocation
Location
p5044
(dp5045
g3
g4
(S'13.6946522'
p5046
tp5047
Rp5048
sg8
g4
(S'51.0840300'
p5049
tp5050
Rp5051
sba(iLocation
Location
p5052
(dp5053
g3
g4
(S'13.7185166'
p5054
tp5055
Rp5056
sg8
g4
(S'51.0872037'
p5057
tp5058
Rp5059
sba(iLocation
Location
p5060
(dp5061
g3
g4
(S'13.6324819'
p5062
tp5063
Rp5064
sg8
g4
(S'50.9761810'
p5065
tp5066
Rp5067
sba(iLocation
Location
p5068
(dp5069
g3
g4
(S'13.6776050'
p5070
tp5071
Rp5072
sg8
g4
(S'51.0348141'
p5073
tp5074
Rp5075
sba(iLocation
Location
p5076
(dp5077
g3
g4
(S'13.7580692'
p5078
tp5079
Rp5080
sg8
g4
(S'51.0627055'
p5081
tp5082
Rp5083
sba(iLocation
Location
p5084
(dp5085
g3
g4
(S'13.8706227'
p5086
tp5087
Rp5088
sg8
g4
(S'50.9885069'
p5089
tp5090
Rp5091
sba(iLocation
Location
p5092
(dp5093
g3
g4
(S'13.7754793'
p5094
tp5095
Rp5096
sg8
g4
(S'51.0124722'
p5097
tp5098
Rp5099
sba(iLocation
Location
p5100
(dp5101
g3
g4
(S'13.8083670'
p5102
tp5103
Rp5104
sg8
g4
(S'50.9671220'
p5105
tp5106
Rp5107
sba(iLocation
Location
p5108
(dp5109
g3
g4
(S'13.7398816'
p5110
tp5111
Rp5112
sg8
g4
(S'51.0394845'
p5113
tp5114
Rp5115
sba(iLocation
Location
p5116
(dp5117
g3
g4
(S'13.6783711'
p5118
tp5119
Rp5120
sg8
g4
(S'51.0895478'
p5121
tp5122
Rp5123
sba(iLocation
Location
p5124
(dp5125
g3
g4
(S'13.8102835'
p5126
tp5127
Rp5128
sg8
g4
(S'51.0224602'
p5129
tp5130
Rp5131
sba(iLocation
Location
p5132
(dp5133
g3
g4
(S'13.8085041'
p5134
tp5135
Rp5136
sg8
g4
(S'51.0304101'
p5137
tp5138
Rp5139
sba(iLocation
Location
p5140
(dp5141
g3
g4
(S'13.7190883'
p5142
tp5143
Rp5144
sg8
g4
(S'51.0932796'
p5145
tp5146
Rp5147
sba(iLocation
Location
p5148
(dp5149
g3
g4
(S'13.8759224'
p5150
tp5151
Rp5152
sg8
g4
(S'50.9903431'
p5153
tp5154
Rp5155
sba(iLocation
Location
p5156
(dp5157
g3
g4
(S'13.7642529'
p5158
tp5159
Rp5160
sg8
g4
(S'51.0916444'
p5161
tp5162
Rp5163
sba(iLocation
Location
p5164
(dp5165
g3
g4
(S'13.7479921'
p5166
tp5167
Rp5168
sg8
g4
(S'51.0590037'
p5169
tp5170
Rp5171
sba(iLocation
Location
p5172
(dp5173
g3
g4
(S'13.6720052'
p5174
tp5175
Rp5176
sg8
g4
(S'51.0410852'
p5177
tp5178
Rp5179
sba(iLocation
Location
p5180
(dp5181
g3
g4
(S'13.7312503'
p5182
tp5183
Rp5184
sg8
g4
(S'51.0043160'
p5185
tp5186
Rp5187
sba(iLocation
Location
p5188
(dp5189
g3
g4
(S'13.8030336'
p5190
tp5191
Rp5192
sg8
g4
(S'51.0039507'
p5193
tp5194
Rp5195
sba(iLocation
Location
p5196
(dp5197
g3
g4
(S'13.7181368'
p5198
tp5199
Rp5200
sg8
g4
(S'51.0598593'
p5201
tp5202
Rp5203
sba(iLocation
Location
p5204
(dp5205
g3
g4
(S'13.6964000'
p5206
tp5207
Rp5208
sg8
g4
(S'51.0819994'
p5209
tp5210
Rp5211
sba(iLocation
Location
p5212
(dp5213
g3
g4
(S'13.7279361'
p5214
tp5215
Rp5216
sg8
g4
(S'51.0602347'
p5217
tp5218
Rp5219
sba(iLocation
Location
p5220
(dp5221
g3
g4
(S'13.7793290'
p5222
tp5223
Rp5224
sg8
g4
(S'51.0161967'
p5225
tp5226
Rp5227
sba(iLocation
Location
p5228
(dp5229
g3
g4
(S'13.7994088'
p5230
tp5231
Rp5232
sg8
g4
(S'51.0240948'
p5233
tp5234
Rp5235
sba(iLocation
Location
p5236
(dp5237
g3
g4
(S'13.7751356'
p5238
tp5239
Rp5240
sg8
g4
(S'50.9911516'
p5241
tp5242
Rp5243
sba(iLocation
Location
p5244
(dp5245
g3
g4
(S'13.6628843'
p5246
tp5247
Rp5248
sg8
g4
(S'51.0402528'
p5249
tp5250
Rp5251
sba(iLocation
Location
p5252
(dp5253
g3
g4
(S'13.8040926'
p5254
tp5255
Rp5256
sg8
g4
(S'51.0044291'
p5257
tp5258
Rp5259
sba(iLocation
Location
p5260
(dp5261
g3
g4
(S'13.5933162'
p5262
tp5263
Rp5264
sg8
g4
(S'51.0312978'
p5265
tp5266
Rp5267
sba(iLocation
Location
p5268
(dp5269
g3
g4
(S'13.7399341'
p5270
tp5271
Rp5272
sg8
g4
(S'51.0569600'
p5273
tp5274
Rp5275
sba(iLocation
Location
p5276
(dp5277
g3
g4
(S'13.7767666'
p5278
tp5279
Rp5280
sg8
g4
(S'51.1002437'
p5281
tp5282
Rp5283
sba(iLocation
Location
p5284
(dp5285
g3
g4
(S'13.6331135'
p5286
tp5287
Rp5288
sg8
g4
(S'50.9860578'
p5289
tp5290
Rp5291
sba(iLocation
Location
p5292
(dp5293
g3
g4
(S'13.6781186'
p5294
tp5295
Rp5296
sg8
g4
(S'51.0493319'
p5297
tp5298
Rp5299
sba(iLocation
Location
p5300
(dp5301
g3
g4
(S'13.7575317'
p5302
tp5303
Rp5304
sg8
g4
(S'51.0422633'
p5305
tp5306
Rp5307
sba(iLocation
Location
p5308
(dp5309
g3
g4
(S'13.6424542'
p5310
tp5311
Rp5312
sg8
g4
(S'50.9630096'
p5313
tp5314
Rp5315
sba(iLocation
Location
p5316
(dp5317
g3
g4
(S'13.8060809'
p5318
tp5319
Rp5320
sg8
g4
(S'50.9646587'
p5321
tp5322
Rp5323
sba(iLocation
Location
p5324
(dp5325
g3
g4
(S'13.8113684'
p5326
tp5327
Rp5328
sg8
g4
(S'51.0634562'
p5329
tp5330
Rp5331
sba(iLocation
Location
p5332
(dp5333
g3
g4
(S'13.6761239'
p5334
tp5335
Rp5336
sg8
g4
(S'51.0120577'
p5337
tp5338
Rp5339
sba(iLocation
Location
p5340
(dp5341
g3
g4
(S'13.7645454'
p5342
tp5343
Rp5344
sg8
g4
(S'51.0694486'
p5345
tp5346
Rp5347
sba(iLocation
Location
p5348
(dp5349
g3
g4
(S'13.6953920'
p5350
tp5351
Rp5352
sg8
g4
(S'51.0773338'
p5353
tp5354
Rp5355
sba(iLocation
Location
p5356
(dp5357
g3
g4
(S'13.7830221'
p5358
tp5359
Rp5360
sg8
g4
(S'51.0355999'
p5361
tp5362
Rp5363
sba(iLocation
Location
p5364
(dp5365
g3
g4
(S'13.7308501'
p5366
tp5367
Rp5368
sg8
g4
(S'51.0870155'
p5369
tp5370
Rp5371
sba(iLocation
Location
p5372
(dp5373
g3
g4
(S'13.7809986'
p5374
tp5375
Rp5376
sg8
g4
(S'51.0601036'
p5377
tp5378
Rp5379
sba(iLocation
Location
p5380
(dp5381
g3
g4
(S'13.7935979'
p5382
tp5383
Rp5384
sg8
g4
(S'51.0323630'
p5385
tp5386
Rp5387
sba(iLocation
Location
p5388
(dp5389
g3
g4
(S'13.6870417'
p5390
tp5391
Rp5392
sg8
g4
(S'51.0227233'
p5393
tp5394
Rp5395
sba(iLocation
Location
p5396
(dp5397
g3
g4
(S'13.7548515'
p5398
tp5399
Rp5400
sg8
g4
(S'51.0122631'
p5401
tp5402
Rp5403
sba(iLocation
Location
p5404
(dp5405
g3
g4
(S'13.7480150'
p5406
tp5407
Rp5408
sg8
g4
(S'51.0290806'
p5409
tp5410
Rp5411
sba(iLocation
Location
p5412
(dp5413
g3
g4
(S'13.7230371'
p5414
tp5415
Rp5416
sg8
g4
(S'51.0294577'
p5417
tp5418
Rp5419
sba(iLocation
Location
p5420
(dp5421
g3
g4
(S'13.8622019'
p5422
tp5423
Rp5424
sg8
g4
(S'50.9837295'
p5425
tp5426
Rp5427
sba(iLocation
Location
p5428
(dp5429
g3
g4
(S'13.7906753'
p5430
tp5431
Rp5432
sg8
g4
(S'51.0649392'
p5433
tp5434
Rp5435
sba(iLocation
Location
p5436
(dp5437
g3
g4
(S'13.7093685'
p5438
tp5439
Rp5440
sg8
g4
(S'51.0930584'
p5441
tp5442
Rp5443
sba(iLocation
Location
p5444
(dp5445
g3
g4
(S'13.7404669'
p5446
tp5447
Rp5448
sg8
g4
(S'51.0293583'
p5449
tp5450
Rp5451
sba(iLocation
Location
p5452
(dp5453
g3
g4
(S'13.7846712'
p5454
tp5455
Rp5456
sg8
g4
(S'51.0076785'
p5457
tp5458
Rp5459
sba(iLocation
Location
p5460
(dp5461
g3
g4
(S'13.6363239'
p5462
tp5463
Rp5464
sg8
g4
(S'51.0163018'
p5465
tp5466
Rp5467
sba(iLocation
Location
p5468
(dp5469
g3
g4
(S'13.7441958'
p5470
tp5471
Rp5472
sg8
g4
(S'51.0582511'
p5473
tp5474
Rp5475
sba(iLocation
Location
p5476
(dp5477
g3
g4
(S'13.8695119'
p5478
tp5479
Rp5480
sg8
g4
(S'50.9987797'
p5481
tp5482
Rp5483
sba(iLocation
Location
p5484
(dp5485
g3
g4
(S'13.7327392'
p5486
tp5487
Rp5488
sg8
g4
(S'51.0787944'
p5489
tp5490
Rp5491
sba(iLocation
Location
p5492
(dp5493
g3
g4
(S'13.6941538'
p5494
tp5495
Rp5496
sg8
g4
(S'51.0534760'
p5497
tp5498
Rp5499
sba(iLocation
Location
p5500
(dp5501
g3
g4
(S'13.7367708'
p5502
tp5503
Rp5504
sg8
g4
(S'51.0281096'
p5505
tp5506
Rp5507
sba(iLocation
Location
p5508
(dp5509
g3
g4
(S'13.8546456'
p5510
tp5511
Rp5512
sg8
g4
(S'51.0618578'
p5513
tp5514
Rp5515
sba(iLocation
Location
p5516
(dp5517
g3
g4
(S'13.7771430'
p5518
tp5519
Rp5520
sg8
g4
(S'51.0526241'
p5521
tp5522
Rp5523
sba(iLocation
Location
p5524
(dp5525
g3
g4
(S'13.7525147'
p5526
tp5527
Rp5528
sg8
g4
(S'51.0579954'
p5529
tp5530
Rp5531
sba(iLocation
Location
p5532
(dp5533
g3
g4
(S'13.6692063'
p5534
tp5535
Rp5536
sg8
g4
(S'50.9881006'
p5537
tp5538
Rp5539
sba(iLocation
Location
p5540
(dp5541
g3
g4
(S'13.7522371'
p5542
tp5543
Rp5544
sg8
g4
(S'51.0776492'
p5545
tp5546
Rp5547
sba(iLocation
Location
p5548
(dp5549
g3
g4
(S'13.7317360'
p5550
tp5551
Rp5552
sg8
g4
(S'51.0253420'
p5553
tp5554
Rp5555
sba(iLocation
Location
p5556
(dp5557
g3
g4
(S'13.7685187'
p5558
tp5559
Rp5560
sg8
g4
(S'51.0053972'
p5561
tp5562
Rp5563
sba(iLocation
Location
p5564
(dp5565
g3
g4
(S'13.6996761'
p5566
tp5567
Rp5568
sg8
g4
(S'51.0358632'
p5569
tp5570
Rp5571
sba(iLocation
Location
p5572
(dp5573
g3
g4
(S'13.6762600'
p5574
tp5575
Rp5576
sg8
g4
(S'50.9990213'
p5577
tp5578
Rp5579
sba(iLocation
Location
p5580
(dp5581
g3
g4
(S'13.8549694'
p5582
tp5583
Rp5584
sg8
g4
(S'50.9995167'
p5585
tp5586
Rp5587
sba(iLocation
Location
p5588
(dp5589
g3
g4
(S'13.8705190'
p5590
tp5591
Rp5592
sg8
g4
(S'51.0080271'
p5593
tp5594
Rp5595
sba(iLocation
Location
p5596
(dp5597
g3
g4
(S'13.7176443'
p5598
tp5599
Rp5600
sg8
g4
(S'51.0257164'
p5601
tp5602
Rp5603
sba(iLocation
Location
p5604
(dp5605
g3
g4
(S'13.7510955'
p5606
tp5607
Rp5608
sg8
g4
(S'51.0310957'
p5609
tp5610
Rp5611
sba(iLocation
Location
p5612
(dp5613
g3
g4
(S'13.7573837'
p5614
tp5615
Rp5616
sg8
g4
(S'51.0616380'
p5617
tp5618
Rp5619
sba(iLocation
Location
p5620
(dp5621
g3
g4
(S'13.8406870'
p5622
tp5623
Rp5624
sg8
g4
(S'51.0341062'
p5625
tp5626
Rp5627
sba(iLocation
Location
p5628
(dp5629
g3
g4
(S'13.6962702'
p5630
tp5631
Rp5632
sg8
g4
(S'51.0530284'
p5633
tp5634
Rp5635
sba(iLocation
Location
p5636
(dp5637
g3
g4
(S'13.7889457'
p5638
tp5639
Rp5640
sg8
g4
(S'51.0481012'
p5641
tp5642
Rp5643
sba(iLocation
Location
p5644
(dp5645
g3
g4
(S'13.7425464'
p5646
tp5647
Rp5648
sg8
g4
(S'51.0846840'
p5649
tp5650
Rp5651
sba(iLocation
Location
p5652
(dp5653
g3
g4
(S'13.7458841'
p5654
tp5655
Rp5656
sg8
g4
(S'51.0493229'
p5657
tp5658
Rp5659
sba(iLocation
Location
p5660
(dp5661
g3
g4
(S'13.6582669'
p5662
tp5663
Rp5664
sg8
g4
(S'50.9924642'
p5665
tp5666
Rp5667
sba(iLocation
Location
p5668
(dp5669
g3
g4
(S'13.8200302'
p5670
tp5671
Rp5672
sg8
g4
(S'51.0137428'
p5673
tp5674
Rp5675
sba(iLocation
Location
p5676
(dp5677
g3
g4
(S'13.7222801'
p5678
tp5679
Rp5680
sg8
g4
(S'51.0779780'
p5681
tp5682
Rp5683
sba(iLocation
Location
p5684
(dp5685
g3
g4
(S'13.7456360'
p5686
tp5687
Rp5688
sg8
g4
(S'51.0580976'
p5689
tp5690
Rp5691
sba(iLocation
Location
p5692
(dp5693
g3
g4
(S'13.6940461'
p5694
tp5695
Rp5696
sg8
g4
(S'51.0864404'
p5697
tp5698
Rp5699
sba(iLocation
Location
p5700
(dp5701
g3
g4
(S'13.7375878'
p5702
tp5703
Rp5704
sg8
g4
(S'51.0281589'
p5705
tp5706
Rp5707
sba(iLocation
Location
p5708
(dp5709
g3
g4
(S'13.7748798'
p5710
tp5711
Rp5712
sg8
g4
(S'51.0497594'
p5713
tp5714
Rp5715
sba(iLocation
Location
p5716
(dp5717
g3
g4
(S'13.6703271'
p5718
tp5719
Rp5720
sg8
g4
(S'51.0458255'
p5721
tp5722
Rp5723
sba(iLocation
Location
p5724
(dp5725
g3
g4
(S'13.6451482'
p5726
tp5727
Rp5728
sg8
g4
(S'50.9903633'
p5729
tp5730
Rp5731
sba(iLocation
Location
p5732
(dp5733
g3
g4
(S'13.7422810'
p5734
tp5735
Rp5736
sg8
g4
(S'51.0655544'
p5737
tp5738
Rp5739
sba(iLocation
Location
p5740
(dp5741
g3
g4
(S'13.7048108'
p5742
tp5743
Rp5744
sg8
g4
(S'51.0302664'
p5745
tp5746
Rp5747
sba(iLocation
Location
p5748
(dp5749
g3
g4
(S'13.6920219'
p5750
tp5751
Rp5752
sg8
g4
(S'51.0724822'
p5753
tp5754
Rp5755
sba(iLocation
Location
p5756
(dp5757
g3
g4
(S'13.7381717'
p5758
tp5759
Rp5760
sg8
g4
(S'51.0620128'
p5761
tp5762
Rp5763
sba(iLocation
Location
p5764
(dp5765
g3
g4
(S'13.7334944'
p5766
tp5767
Rp5768
sg8
g4
(S'51.0267069'
p5769
tp5770
Rp5771
sba(iLocation
Location
p5772
(dp5773
g3
g4
(S'13.8744629'
p5774
tp5775
Rp5776
sg8
g4
(S'50.9728834'
p5777
tp5778
Rp5779
sba(iLocation
Location
p5780
(dp5781
g3
g4
(S'13.6206270'
p5782
tp5783
Rp5784
sg8
g4
(S'50.9819301'
p5785
tp5786
Rp5787
sba(iLocation
Location
p5788
(dp5789
g3
g4
(S'13.7907256'
p5790
tp5791
Rp5792
sg8
g4
(S'51.0187827'
p5793
tp5794
Rp5795
sba(iLocation
Location
p5796
(dp5797
g3
g4
(S'13.7454222'
p5798
tp5799
Rp5800
sg8
g4
(S'51.0280392'
p5801
tp5802
Rp5803
sba(iLocation
Location
p5804
(dp5805
g3
g4
(S'13.6769006'
p5806
tp5807
Rp5808
sg8
g4
(S'51.0572809'
p5809
tp5810
Rp5811
sba(iLocation
Location
p5812
(dp5813
g3
g4
(S'13.6761940'
p5814
tp5815
Rp5816
sg8
g4
(S'51.0420585'
p5817
tp5818
Rp5819
sba(iLocation
Location
p5820
(dp5821
g3
g4
(S'13.7235343'
p5822
tp5823
Rp5824
sg8
g4
(S'51.0322938'
p5825
tp5826
Rp5827
sba(iLocation
Location
p5828
(dp5829
g3
g4
(S'13.8636486'
p5830
tp5831
Rp5832
sg8
g4
(S'51.0385585'
p5833
tp5834
Rp5835
sba(iLocation
Location
p5836
(dp5837
g3
g4
(S'13.7379577'
p5838
tp5839
Rp5840
sg8
g4
(S'51.0707714'
p5841
tp5842
Rp5843
sba(iLocation
Location
p5844
(dp5845
g3
g4
(S'13.6329132'
p5846
tp5847
Rp5848
sg8
g4
(S'51.0532598'
p5849
tp5850
Rp5851
sba(iLocation
Location
p5852
(dp5853
g3
g4
(S'13.7141035'
p5854
tp5855
Rp5856
sg8
g4
(S'51.0402879'
p5857
tp5858
Rp5859
sba(iLocation
Location
p5860
(dp5861
g3
g4
(S'13.6205083'
p5862
tp5863
Rp5864
sg8
g4
(S'51.0922498'
p5865
tp5866
Rp5867
sba(iLocation
Location
p5868
(dp5869
g3
g4
(S'13.6929470'
p5870
tp5871
Rp5872
sg8
g4
(S'51.0464002'
p5873
tp5874
Rp5875
sba(iLocation
Location
p5876
(dp5877
g3
g4
(S'13.7367925'
p5878
tp5879
Rp5880
sg8
g4
(S'51.0629763'
p5881
tp5882
Rp5883
sba(iLocation
Location
p5884
(dp5885
g3
g4
(S'13.7712561'
p5886
tp5887
Rp5888
sg8
g4
(S'51.0714063'
p5889
tp5890
Rp5891
sba(iLocation
Location
p5892
(dp5893
g3
g4
(S'13.7887482'
p5894
tp5895
Rp5896
sg8
g4
(S'50.9899302'
p5897
tp5898
Rp5899
sba(iLocation
Location
p5900
(dp5901
g3
g4
(S'13.7793604'
p5902
tp5903
Rp5904
sg8
g4
(S'51.0185948'
p5905
tp5906
Rp5907
sba(iLocation
Location
p5908
(dp5909
g3
g4
(S'13.6987663'
p5910
tp5911
Rp5912
sg8
g4
(S'51.0298079'
p5913
tp5914
Rp5915
sba(iLocation
Location
p5916
(dp5917
g3
g4
(S'13.6822390'
p5918
tp5919
Rp5920
sg8
g4
(S'51.0567813'
p5921
tp5922
Rp5923
sba(iLocation
Location
p5924
(dp5925
g3
g4
(S'13.6279558'
p5926
tp5927
Rp5928
sg8
g4
(S'50.9781705'
p5929
tp5930
Rp5931
sba(iLocation
Location
p5932
(dp5933
g3
g4
(S'13.7975819'
p5934
tp5935
Rp5936
sg8
g4
(S'51.0520619'
p5937
tp5938
Rp5939
sba(iLocation
Location
p5940
(dp5941
g3
g4
(S'13.7886383'
p5942
tp5943
Rp5944
sg8
g4
(S'51.0185296'
p5945
tp5946
Rp5947
sba(iLocation
Location
p5948
(dp5949
g3
g4
(S'13.7772801'
p5950
tp5951
Rp5952
sg8
g4
(S'51.0174277'
p5953
tp5954
Rp5955
sba(iLocation
Location
p5956
(dp5957
g3
g4
(S'13.7516660'
p5958
tp5959
Rp5960
sg8
g4
(S'51.0628982'
p5961
tp5962
Rp5963
sba(iLocation
Location
p5964
(dp5965
g3
g4
(S'13.7631227'
p5966
tp5967
Rp5968
sg8
g4
(S'51.0277399'
p5969
tp5970
Rp5971
sba(iLocation
Location
p5972
(dp5973
g3
g4
(S'13.7903739'
p5974
tp5975
Rp5976
sg8
g4
(S'51.0371307'
p5977
tp5978
Rp5979
sba(iLocation
Location
p5980
(dp5981
g3
g4
(S'13.8758265'
p5982
tp5983
Rp5984
sg8
g4
(S'50.9666782'
p5985
tp5986
Rp5987
sba(iLocation
Location
p5988
(dp5989
g3
g4
(S'13.6109070'
p5990
tp5991
Rp5992
sg8
g4
(S'51.0230935'
p5993
tp5994
Rp5995
sba(iLocation
Location
p5996
(dp5997
g3
g4
(S'13.7631179'
p5998
tp5999
Rp6000
sg8
g4
(S'51.0155354'
p6001
tp6002
Rp6003
sba(iLocation
Location
p6004
(dp6005
g3
g4
(S'13.7627647'
p6006
tp6007
Rp6008
sg8
g4
(S'50.9898251'
p6009
tp6010
Rp6011
sba(iLocation
Location
p6012
(dp6013
g3
g4
(S'13.7749099'
p6014
tp6015
Rp6016
sg8
g4
(S'51.0113139'
p6017
tp6018
Rp6019
sba(iLocation
Location
p6020
(dp6021
g3
g4
(S'13.6783310'
p6022
tp6023
Rp6024
sg8
g4
(S'51.0499444'
p6025
tp6026
Rp6027
sba(iLocation
Location
p6028
(dp6029
g3
g4
(S'13.8710385'
p6030
tp6031
Rp6032
sg8
g4
(S'51.0112421'
p6033
tp6034
Rp6035
sba(iLocation
Location
p6036
(dp6037
g3
g4
(S'13.7242770'
p6038
tp6039
Rp6040
sg8
g4
(S'51.0665037'
p6041
tp6042
Rp6043
sba(iLocation
Location
p6044
(dp6045
g3
g4
(S'13.7997360'
p6046
tp6047
Rp6048
sg8
g4
(S'50.9963190'
p6049
tp6050
Rp6051
sba(iLocation
Location
p6052
(dp6053
g3
g4
(S'13.6058120'
p6054
tp6055
Rp6056
sg8
g4
(S'51.0430890'
p6057
tp6058
Rp6059
sba(iLocation
Location
p6060
(dp6061
g3
g4
(S'13.8543921'
p6062
tp6063
Rp6064
sg8
g4
(S'51.0668418'
p6065
tp6066
Rp6067
sba(iLocation
Location
p6068
(dp6069
g3
g4
(S'13.8198269'
p6070
tp6071
Rp6072
sg8
g4
(S'51.0475874'
p6073
tp6074
Rp6075
sba(iLocation
Location
p6076
(dp6077
g3
g4
(S'13.8305912'
p6078
tp6079
Rp6080
sg8
g4
(S'51.0672553'
p6081
tp6082
Rp6083
sba(iLocation
Location
p6084
(dp6085
g3
g4
(S'13.6433491'
p6086
tp6087
Rp6088
sg8
g4
(S'51.0418930'
p6089
tp6090
Rp6091
sba(iLocation
Location
p6092
(dp6093
g3
g4
(S'13.7291953'
p6094
tp6095
Rp6096
sg8
g4
(S'51.0978880'
p6097
tp6098
Rp6099
sba(iLocation
Location
p6100
(dp6101
g3
g4
(S'13.8530859'
p6102
tp6103
Rp6104
sg8
g4
(S'50.9644070'
p6105
tp6106
Rp6107
sba(iLocation
Location
p6108
(dp6109
g3
g4
(S'13.7329392'
p6110
tp6111
Rp6112
sg8
g4
(S'51.0537976'
p6113
tp6114
Rp6115
sba(iLocation
Location
p6116
(dp6117
g3
g4
(S'13.6469647'
p6118
tp6119
Rp6120
sg8
g4
(S'51.0021508'
p6121
tp6122
Rp6123
sba(iLocation
Location
p6124
(dp6125
g3
g4
(S'13.8293532'
p6126
tp6127
Rp6128
sg8
g4
(S'50.9890373'
p6129
tp6130
Rp6131
sba(iLocation
Location
p6132
(dp6133
g3
g4
(S'13.6867466'
p6134
tp6135
Rp6136
sg8
g4
(S'51.0770798'
p6137
tp6138
Rp6139
sba(iLocation
Location
p6140
(dp6141
g3
g4
(S'13.7787242'
p6142
tp6143
Rp6144
sg8
g4
(S'51.0258648'
p6145
tp6146
Rp6147
sba(iLocation
Location
p6148
(dp6149
g3
g4
(S'13.7027692'
p6150
tp6151
Rp6152
sg8
g4
(S'51.0149682'
p6153
tp6154
Rp6155
sba(iLocation
Location
p6156
(dp6157
g3
g4
(S'13.8779979'
p6158
tp6159
Rp6160
sg8
g4
(S'51.0220244'
p6161
tp6162
Rp6163
sba(iLocation
Location
p6164
(dp6165
g3
g4
(S'13.7802425'
p6166
tp6167
Rp6168
sg8
g4
(S'51.0571762'
p6169
tp6170
Rp6171
sba(iLocation
Location
p6172
(dp6173
g3
g4
(S'13.7122734'
p6174
tp6175
Rp6176
sg8
g4
(S'51.0489025'
p6177
tp6178
Rp6179
sba(iLocation
Location
p6180
(dp6181
g3
g4
(S'13.7408376'
p6182
tp6183
Rp6184
sg8
g4
(S'51.0720520'
p6185
tp6186
Rp6187
sba(iLocation
Location
p6188
(dp6189
g3
g4
(S'13.6892694'
p6190
tp6191
Rp6192
sg8
g4
(S'51.0476654'
p6193
tp6194
Rp6195
sba(iLocation
Location
p6196
(dp6197
g3
g4
(S'13.8583545'
p6198
tp6199
Rp6200
sg8
g4
(S'51.0997568'
p6201
tp6202
Rp6203
sba(iLocation
Location
p6204
(dp6205
g3
g4
(S'13.7359384'
p6206
tp6207
Rp6208
sg8
g4
(S'51.0337673'
p6209
tp6210
Rp6211
sba(iLocation
Location
p6212
(dp6213
g3
g4
(S'13.8013949'
p6214
tp6215
Rp6216
sg8
g4
(S'51.0064107'
p6217
tp6218
Rp6219
sba(iLocation
Location
p6220
(dp6221
g3
g4
(S'13.6425938'
p6222
tp6223
Rp6224
sg8
g4
(S'51.0828225'
p6225
tp6226
Rp6227
sba(iLocation
Location
p6228
(dp6229
g3
g4
(S'13.7281659'
p6230
tp6231
Rp6232
sg8
g4
(S'51.0307477'
p6233
tp6234
Rp6235
sba(iLocation
Location
p6236
(dp6237
g3
g4
(S'13.7711213'
p6238
tp6239
Rp6240
sg8
g4
(S'51.0461683'
p6241
tp6242
Rp6243
sba(iLocation
Location
p6244
(dp6245
g3
g4
(S'13.8520599'
p6246
tp6247
Rp6248
sg8
g4
(S'51.0058977'
p6249
tp6250
Rp6251
sba(iLocation
Location
p6252
(dp6253
g3
g4
(S'13.5991373'
p6254
tp6255
Rp6256
sg8
g4
(S'51.0672933'
p6257
tp6258
Rp6259
sba(iLocation
Location
p6260
(dp6261
g3
g4
(S'13.7256183'
p6262
tp6263
Rp6264
sg8
g4
(S'51.0567936'
p6265
tp6266
Rp6267
sba(iLocation
Location
p6268
(dp6269
g3
g4
(S'13.8253369'
p6270
tp6271
Rp6272
sg8
g4
(S'51.0111011'
p6273
tp6274
Rp6275
sba(iLocation
Location
p6276
(dp6277
g3
g4
(S'13.8315756'
p6278
tp6279
Rp6280
sg8
g4
(S'51.0149253'
p6281
tp6282
Rp6283
sba(iLocation
Location
p6284
(dp6285
g3
g4
(S'13.7783560'
p6286
tp6287
Rp6288
sg8
g4
(S'51.0291483'
p6289
tp6290
Rp6291
sba(iLocation
Location
p6292
(dp6293
g3
g4
(S'13.8425122'
p6294
tp6295
Rp6296
sg8
g4
(S'51.0457765'
p6297
tp6298
Rp6299
sba(iLocation
Location
p6300
(dp6301
g3
g4
(S'13.7750434'
p6302
tp6303
Rp6304
sg8
g4
(S'51.0112135'
p6305
tp6306
Rp6307
sba(iLocation
Location
p6308
(dp6309
g3
g4
(S'13.6677814'
p6310
tp6311
Rp6312
sg8
g4
(S'51.0326886'
p6313
tp6314
Rp6315
sba(iLocation
Location
p6316
(dp6317
g3
g4
(S'13.8128383'
p6318
tp6319
Rp6320
sg8
g4
(S'51.0448826'
p6321
tp6322
Rp6323
sba(iLocation
Location
p6324
(dp6325
g3
g4
(S'13.7813147'
p6326
tp6327
Rp6328
sg8
g4
(S'51.0583232'
p6329
tp6330
Rp6331
sba(iLocation
Location
p6332
(dp6333
g3
g4
(S'13.7982403'
p6334
tp6335
Rp6336
sg8
g4
(S'51.0029003'
p6337
tp6338
Rp6339
sba(iLocation
Location
p6340
(dp6341
g3
g4
(S'13.7318059'
p6342
tp6343
Rp6344
sg8
g4
(S'51.0772506'
p6345
tp6346
Rp6347
sba(iLocation
Location
p6348
(dp6349
g3
g4
(S'13.7653387'
p6350
tp6351
Rp6352
sg8
g4
(S'51.0498655'
p6353
tp6354
Rp6355
sba(iLocation
Location
p6356
(dp6357
g3
g4
(S'13.7181611'
p6358
tp6359
Rp6360
sg8
g4
(S'51.0190161'
p6361
tp6362
Rp6363
sba(iLocation
Location
p6364
(dp6365
g3
g4
(S'13.7743295'
p6366
tp6367
Rp6368
sg8
g4
(S'51.0865741'
p6369
tp6370
Rp6371
sba(iLocation
Location
p6372
(dp6373
g3
g4
(S'13.8943011'
p6374
tp6375
Rp6376
sg8
g4
(S'51.0346368'
p6377
tp6378
Rp6379
sba(iLocation
Location
p6380
(dp6381
g3
g4
(S'13.6085878'
p6382
tp6383
Rp6384
sg8
g4
(S'51.0541234'
p6385
tp6386
Rp6387
sba(iLocation
Location
p6388
(dp6389
g3
g4
(S'13.7965210'
p6390
tp6391
Rp6392
sg8
g4
(S'51.0071588'
p6393
tp6394
Rp6395
sba(iLocation
Location
p6396
(dp6397
g3
g4
(S'13.8868167'
p6398
tp6399
Rp6400
sg8
g4
(S'50.9767603'
p6401
tp6402
Rp6403
sba(iLocation
Location
p6404
(dp6405
g3
g4
(S'13.7683793'
p6406
tp6407
Rp6408
sg8
g4
(S'51.0358256'
p6409
tp6410
Rp6411
sba(iLocation
Location
p6412
(dp6413
g3
g4
(S'13.8632761'
p6414
tp6415
Rp6416
sg8
g4
(S'51.0149157'
p6417
tp6418
Rp6419
sba(iLocation
Location
p6420
(dp6421
g3
g4
(S'13.6553942'
p6422
tp6423
Rp6424
sg8
g4
(S'51.0507603'
p6425
tp6426
Rp6427
sba(iLocation
Location
p6428
(dp6429
g3
g4
(S'13.6474199'
p6430
tp6431
Rp6432
sg8
g4
(S'50.9928635'
p6433
tp6434
Rp6435
sba(iLocation
Location
p6436
(dp6437
g3
g4
(S'13.7424464'
p6438
tp6439
Rp6440
sg8
g4
(S'51.0724877'
p6441
tp6442
Rp6443
sba(iLocation
Location
p6444
(dp6445
g3
g4
(S'13.6784147'
p6446
tp6447
Rp6448
sg8
g4
(S'51.0404566'
p6449
tp6450
Rp6451
sba(iLocation
Location
p6452
(dp6453
g3
g4
(S'13.7341318'
p6454
tp6455
Rp6456
sg8
g4
(S'51.0746472'
p6457
tp6458
Rp6459
sba(iLocation
Location
p6460
(dp6461
g3
g4
(S'13.7411361'
p6462
tp6463
Rp6464
sg8
g4
(S'51.0601783'
p6465
tp6466
Rp6467
sba(iLocation
Location
p6468
(dp6469
g3
g4
(S'13.6584251'
p6470
tp6471
Rp6472
sg8
g4
(S'51.0485903'
p6473
tp6474
Rp6475
sba(iLocation
Location
p6476
(dp6477
g3
g4
(S'13.7353941'
p6478
tp6479
Rp6480
sg8
g4
(S'51.0359703'
p6481
tp6482
Rp6483
sba(iLocation
Location
p6484
(dp6485
g3
g4
(S'13.7665068'
p6486
tp6487
Rp6488
sg8
g4
(S'51.0376773'
p6489
tp6490
Rp6491
sba(iLocation
Location
p6492
(dp6493
g3
g4
(S'13.8282461'
p6494
tp6495
Rp6496
sg8
g4
(S'50.9986925'
p6497
tp6498
Rp6499
sba(iLocation
Location
p6500
(dp6501
g3
g4
(S'13.7758182'
p6502
tp6503
Rp6504
sg8
g4
(S'51.0178442'
p6505
tp6506
Rp6507
sba(iLocation
Location
p6508
(dp6509
g3
g4
(S'13.7798996'
p6510
tp6511
Rp6512
sg8
g4
(S'51.0132230'
p6513
tp6514
Rp6515
sba(iLocation
Location
p6516
(dp6517
g3
g4
(S'13.8218395'
p6518
tp6519
Rp6520
sg8
g4
(S'51.0452836'
p6521
tp6522
Rp6523
sba(iLocation
Location
p6524
(dp6525
g3
g4
(S'13.7326317'
p6526
tp6527
Rp6528
sg8
g4
(S'51.0519532'
p6529
tp6530
Rp6531
sba(iLocation
Location
p6532
(dp6533
g3
g4
(S'13.6405163'
p6534
tp6535
Rp6536
sg8
g4
(S'51.0195470'
p6537
tp6538
Rp6539
sba(iLocation
Location
p6540
(dp6541
g3
g4
(S'13.7448770'
p6542
tp6543
Rp6544
sg8
g4
(S'51.0745039'
p6545
tp6546
Rp6547
sba(iLocation
Location
p6548
(dp6549
g3
g4
(S'13.8099078'
p6550
tp6551
Rp6552
sg8
g4
(S'51.0488869'
p6553
tp6554
Rp6555
sba(iLocation
Location
p6556
(dp6557
g3
g4
(S'13.7669732'
p6558
tp6559
Rp6560
sg8
g4
(S'51.0588753'
p6561
tp6562
Rp6563
sba(iLocation
Location
p6564
(dp6565
g3
g4
(S'13.6629997'
p6566
tp6567
Rp6568
sg8
g4
(S'50.9855114'
p6569
tp6570
Rp6571
sba(iLocation
Location
p6572
(dp6573
g3
g4
(S'13.7585330'
p6574
tp6575
Rp6576
sg8
g4
(S'51.0080516'
p6577
tp6578
Rp6579
sba(iLocation
Location
p6580
(dp6581
g3
g4
(S'13.8533903'
p6582
tp6583
Rp6584
sg8
g4
(S'51.0104865'
p6585
tp6586
Rp6587
sba(iLocation
Location
p6588
(dp6589
g3
g4
(S'13.7196659'
p6590
tp6591
Rp6592
sg8
g4
(S'51.0171093'
p6593
tp6594
Rp6595
sba(iLocation
Location
p6596
(dp6597
g3
g4
(S'13.7375026'
p6598
tp6599
Rp6600
sg8
g4
(S'51.0540040'
p6601
tp6602
Rp6603
sba(iLocation
Location
p6604
(dp6605
g3
g4
(S'13.6233739'
p6606
tp6607
Rp6608
sg8
g4
(S'51.0878093'
p6609
tp6610
Rp6611
sba(iLocation
Location
p6612
(dp6613
g3
g4
(S'13.6991409'
p6614
tp6615
Rp6616
sg8
g4
(S'50.9851356'
p6617
tp6618
Rp6619
sba(iLocation
Location
p6620
(dp6621
g3
g4
(S'13.6000186'
p6622
tp6623
Rp6624
sg8
g4
(S'51.0401331'
p6625
tp6626
Rp6627
sba(iLocation
Location
p6628
(dp6629
g3
g4
(S'13.6355458'
p6630
tp6631
Rp6632
sg8
g4
(S'50.9593926'
p6633
tp6634
Rp6635
sba(iLocation
Location
p6636
(dp6637
g3
g4
(S'13.7261035'
p6638
tp6639
Rp6640
sg8
g4
(S'51.0723922'
p6641
tp6642
Rp6643
sba(iLocation
Location
p6644
(dp6645
g3
g4
(S'13.6699584'
p6646
tp6647
Rp6648
sg8
g4
(S'51.0375445'
p6649
tp6650
Rp6651
sba(iLocation
Location
p6652
(dp6653
g3
g4
(S'13.8487416'
p6654
tp6655
Rp6656
sg8
g4
(S'51.0998992'
p6657
tp6658
Rp6659
sba(iLocation
Location
p6660
(dp6661
g3
g4
(S'13.7659290'
p6662
tp6663
Rp6664
sg8
g4
(S'51.0067858'
p6665
tp6666
Rp6667
sba(iLocation
Location
p6668
(dp6669
g3
g4
(S'13.6573690'
p6670
tp6671
Rp6672
sg8
g4
(S'51.0613260'
p6673
tp6674
Rp6675
sba(iLocation
Location
p6676
(dp6677
g3
g4
(S'13.5933449'
p6678
tp6679
Rp6680
sg8
g4
(S'51.0797150'
p6681
tp6682
Rp6683
sba(iLocation
Location
p6684
(dp6685
g3
g4
(S'13.6684387'
p6686
tp6687
Rp6688
sg8
g4
(S'51.0140263'
p6689
tp6690
Rp6691
sba(iLocation
Location
p6692
(dp6693
g3
g4
(S'13.8696805'
p6694
tp6695
Rp6696
sg8
g4
(S'51.0675643'
p6697
tp6698
Rp6699
sba(iLocation
Location
p6700
(dp6701
g3
g4
(S'13.7409729'
p6702
tp6703
Rp6704
sg8
g4
(S'51.0614821'
p6705
tp6706
Rp6707
sba(iLocation
Location
p6708
(dp6709
g3
g4
(S'13.7816938'
p6710
tp6711
Rp6712
sg8
g4
(S'51.0807105'
p6713
tp6714
Rp6715
sba(iLocation
Location
p6716
(dp6717
g3
g4
(S'13.7179512'
p6718
tp6719
Rp6720
sg8
g4
(S'51.0597105'
p6721
tp6722
Rp6723
sba(iLocation
Location
p6724
(dp6725
g3
g4
(S'13.6641130'
p6726
tp6727
Rp6728
sg8
g4
(S'51.0722076'
p6729
tp6730
Rp6731
sba(iLocation
Location
p6732
(dp6733
g3
g4
(S'13.6664637'
p6734
tp6735
Rp6736
sg8
g4
(S'51.0936347'
p6737
tp6738
Rp6739
sba(iLocation
Location
p6740
(dp6741
g3
g4
(S'13.6892831'
p6742
tp6743
Rp6744
sg8
g4
(S'51.0885093'
p6745
tp6746
Rp6747
sba(iLocation
Location
p6748
(dp6749
g3
g4
(S'13.7465203'
p6750
tp6751
Rp6752
sg8
g4
(S'51.0668653'
p6753
tp6754
Rp6755
sba(iLocation
Location
p6756
(dp6757
g3
g4
(S'13.8355074'
p6758
tp6759
Rp6760
sg8
g4
(S'50.9987502'
p6761
tp6762
Rp6763
sba(iLocation
Location
p6764
(dp6765
g3
g4
(S'13.8293911'
p6766
tp6767
Rp6768
sg8
g4
(S'51.0235071'
p6769
tp6770
Rp6771
sba(iLocation
Location
p6772
(dp6773
g3
g4
(S'13.8515369'
p6774
tp6775
Rp6776
sg8
g4
(S'50.9925398'
p6777
tp6778
Rp6779
sba(iLocation
Location
p6780
(dp6781
g3
g4
(S'13.8645625'
p6782
tp6783
Rp6784
sg8
g4
(S'51.0194974'
p6785
tp6786
Rp6787
sba(iLocation
Location
p6788
(dp6789
g3
g4
(S'13.7558733'
p6790
tp6791
Rp6792
sg8
g4
(S'51.0642280'
p6793
tp6794
Rp6795
sba(iLocation
Location
p6796
(dp6797
g3
g4
(S'13.6621881'
p6798
tp6799
Rp6800
sg8
g4
(S'50.9999657'
p6801
tp6802
Rp6803
sba(iLocation
Location
p6804
(dp6805
g3
g4
(S'13.7907844'
p6806
tp6807
Rp6808
sg8
g4
(S'51.0211987'
p6809
tp6810
Rp6811
sba(iLocation
Location
p6812
(dp6813
g3
g4
(S'13.6618120'
p6814
tp6815
Rp6816
sg8
g4
(S'51.0107818'
p6817
tp6818
Rp6819
sba(iLocation
Location
p6820
(dp6821
g3
g4
(S'13.7357500'
p6822
tp6823
Rp6824
sg8
g4
(S'51.0487337'
p6825
tp6826
Rp6827
sba(iLocation
Location
p6828
(dp6829
g3
g4
(S'13.7055186'
p6830
tp6831
Rp6832
sg8
g4
(S'51.0911380'
p6833
tp6834
Rp6835
sba(iLocation
Location
p6836
(dp6837
g3
g4
(S'13.8428692'
p6838
tp6839
Rp6840
sg8
g4
(S'50.9675464'
p6841
tp6842
Rp6843
sba(iLocation
Location
p6844
(dp6845
g3
g4
(S'13.8429155'
p6846
tp6847
Rp6848
sg8
g4
(S'51.0427947'
p6849
tp6850
Rp6851
sba(iLocation
Location
p6852
(dp6853
g3
g4
(S'13.6472826'
p6854
tp6855
Rp6856
sg8
g4
(S'50.9904056'
p6857
tp6858
Rp6859
sba(iLocation
Location
p6860
(dp6861
g3
g4
(S'13.7466803'
p6862
tp6863
Rp6864
sg8
g4
(S'51.0637282'
p6865
tp6866
Rp6867
sba(iLocation
Location
p6868
(dp6869
g3
g4
(S'13.6126031'
p6870
tp6871
Rp6872
sg8
g4
(S'51.1023925'
p6873
tp6874
Rp6875
sba(iLocation
Location
p6876
(dp6877
g3
g4
(S'13.7385070'
p6878
tp6879
Rp6880
sg8
g4
(S'51.0391757'
p6881
tp6882
Rp6883
sba(iLocation
Location
p6884
(dp6885
g3
g4
(S'13.7516959'
p6886
tp6887
Rp6888
sg8
g4
(S'51.0669270'
p6889
tp6890
Rp6891
sba(iLocation
Location
p6892
(dp6893
g3
g4
(S'13.8502394'
p6894
tp6895
Rp6896
sg8
g4
(S'51.0034371'
p6897
tp6898
Rp6899
sba(iLocation
Location
p6900
(dp6901
g3
g4
(S'13.7697431'
p6902
tp6903
Rp6904
sg8
g4
(S'51.0955276'
p6905
tp6906
Rp6907
sba(iLocation
Location
p6908
(dp6909
g3
g4
(S'13.8200454'
p6910
tp6911
Rp6912
sg8
g4
(S'51.0398736'
p6913
tp6914
Rp6915
sba(iLocation
Location
p6916
(dp6917
g3
g4
(S'13.8262914'
p6918
tp6919
Rp6920
sg8
g4
(S'51.0562655'
p6921
tp6922
Rp6923
sba(iLocation
Location
p6924
(dp6925
g3
g4
(S'13.8647253'
p6926
tp6927
Rp6928
sg8
g4
(S'50.9930322'
p6929
tp6930
Rp6931
sba(iLocation
Location
p6932
(dp6933
g3
g4
(S'13.6802941'
p6934
tp6935
Rp6936
sg8
g4
(S'51.0026499'
p6937
tp6938
Rp6939
sba(iLocation
Location
p6940
(dp6941
g3
g4
(S'13.6437861'
p6942
tp6943
Rp6944
sg8
g4
(S'50.9961125'
p6945
tp6946
Rp6947
sba(iLocation
Location
p6948
(dp6949
g3
g4
(S'13.6755265'
p6950
tp6951
Rp6952
sg8
g4
(S'51.1000867'
p6953
tp6954
Rp6955
sba(iLocation
Location
p6956
(dp6957
g3
g4
(S'13.6886981'
p6958
tp6959
Rp6960
sg8
g4
(S'51.0739599'
p6961
tp6962
Rp6963
sba(iLocation
Location
p6964
(dp6965
g3
g4
(S'13.7225059'
p6966
tp6967
Rp6968
sg8
g4
(S'51.0859002'
p6969
tp6970
Rp6971
sba(iLocation
Location
p6972
(dp6973
g3
g4
(S'13.7661844'
p6974
tp6975
Rp6976
sg8
g4
(S'51.0731448'
p6977
tp6978
Rp6979
sba(iLocation
Location
p6980
(dp6981
g3
g4
(S'13.6894679'
p6982
tp6983
Rp6984
sg8
g4
(S'50.9916117'
p6985
tp6986
Rp6987
sba(iLocation
Location
p6988
(dp6989
g3
g4
(S'13.8076507'
p6990
tp6991
Rp6992
sg8
g4
(S'51.0348556'
p6993
tp6994
Rp6995
sba(iLocation
Location
p6996
(dp6997
g3
g4
(S'13.7392471'
p6998
tp6999
Rp7000
sg8
g4
(S'51.0659725'
p7001
tp7002
Rp7003
sba(iLocation
Location
p7004
(dp7005
g3
g4
(S'13.7360445'
p7006
tp7007
Rp7008
sg8
g4
(S'51.0487386'
p7009
tp7010
Rp7011
sba(iLocation
Location
p7012
(dp7013
g3
g4
(S'13.6220149'
p7014
tp7015
Rp7016
sg8
g4
(S'50.9811010'
p7017
tp7018
Rp7019
sba(iLocation
Location
p7020
(dp7021
g3
g4
(S'13.7579467'
p7022
tp7023
Rp7024
sg8
g4
(S'51.0758968'
p7025
tp7026
Rp7027
sba(iLocation
Location
p7028
(dp7029
g3
g4
(S'13.7962582'
p7030
tp7031
Rp7032
sg8
g4
(S'51.0117893'
p7033
tp7034
Rp7035
sba(iLocation
Location
p7036
(dp7037
g3
g4
(S'13.6328529'
p7038
tp7039
Rp7040
sg8
g4
(S'50.9837258'
p7041
tp7042
Rp7043
sba(iLocation
Location
p7044
(dp7045
g3
g4
(S'13.5958879'
p7046
tp7047
Rp7048
sg8
g4
(S'51.0336236'
p7049
tp7050
Rp7051
sba(iLocation
Location
p7052
(dp7053
g3
g4
(S'13.8771261'
p7054
tp7055
Rp7056
sg8
g4
(S'51.0329553'
p7057
tp7058
Rp7059
sba(iLocation
Location
p7060
(dp7061
g3
g4
(S'13.6934319'
p7062
tp7063
Rp7064
sg8
g4
(S'51.0842032'
p7065
tp7066
Rp7067
sba(iLocation
Location
p7068
(dp7069
g3
g4
(S'13.7799054'
p7070
tp7071
Rp7072
sg8
g4
(S'51.0777319'
p7073
tp7074
Rp7075
sba(iLocation
Location
p7076
(dp7077
g3
g4
(S'13.7263476'
p7078
tp7079
Rp7080
sg8
g4
(S'51.1018622'
p7081
tp7082
Rp7083
sba(iLocation
Location
p7084
(dp7085
g3
g4
(S'13.7290362'
p7086
tp7087
Rp7088
sg8
g4
(S'51.0207236'
p7089
tp7090
Rp7091
sba(iLocation
Location
p7092
(dp7093
g3
g4
(S'13.7187486'
p7094
tp7095
Rp7096
sg8
g4
(S'51.0864444'
p7097
tp7098
Rp7099
sba(iLocation
Location
p7100
(dp7101
g3
g4
(S'13.7817305'
p7102
tp7103
Rp7104
sg8
g4
(S'50.9917933'
p7105
tp7106
Rp7107
sba(iLocation
Location
p7108
(dp7109
g3
g4
(S'13.7471066'
p7110
tp7111
Rp7112
sg8
g4
(S'51.0635906'
p7113
tp7114
Rp7115
sba(iLocation
Location
p7116
(dp7117
g3
g4
(S'13.6797650'
p7118
tp7119
Rp7120
sg8
g4
(S'51.0986841'
p7121
tp7122
Rp7123
sba(iLocation
Location
p7124
(dp7125
g3
g4
(S'13.6408538'
p7126
tp7127
Rp7128
sg8
g4
(S'50.9681716'
p7129
tp7130
Rp7131
sba(iLocation
Location
p7132
(dp7133
g3
g4
(S'13.7437347'
p7134
tp7135
Rp7136
sg8
g4
(S'51.0096939'
p7137
tp7138
Rp7139
sba(iLocation
Location
p7140
(dp7141
g3
g4
(S'13.7497817'
p7142
tp7143
Rp7144
sg8
g4
(S'51.0749168'
p7145
tp7146
Rp7147
sba(iLocation
Location
p7148
(dp7149
g3
g4
(S'13.7673459'
p7150
tp7151
Rp7152
sg8
g4
(S'51.0911748'
p7153
tp7154
Rp7155
sba(iLocation
Location
p7156
(dp7157
g3
g4
(S'13.7543284'
p7158
tp7159
Rp7160
sg8
g4
(S'50.9984762'
p7161
tp7162
Rp7163
sba(iLocation
Location
p7164
(dp7165
g3
g4
(S'13.6510233'
p7166
tp7167
Rp7168
sg8
g4
(S'50.9921933'
p7169
tp7170
Rp7171
sba(iLocation
Location
p7172
(dp7173
g3
g4
(S'13.7814999'
p7174
tp7175
Rp7176
sg8
g4
(S'51.0349134'
p7177
tp7178
Rp7179
sba(iLocation
Location
p7180
(dp7181
g3
g4
(S'13.7422564'
p7182
tp7183
Rp7184
sg8
g4
(S'51.0498598'
p7185
tp7186
Rp7187
sba(iLocation
Location
p7188
(dp7189
g3
g4
(S'13.6831329'
p7190
tp7191
Rp7192
sg8
g4
(S'51.1021640'
p7193
tp7194
Rp7195
sba(iLocation
Location
p7196
(dp7197
g3
g4
(S'13.6783099'
p7198
tp7199
Rp7200
sg8
g4
(S'51.0454101'
p7201
tp7202
Rp7203
sba(iLocation
Location
p7204
(dp7205
g3
g4
(S'13.6704301'
p7206
tp7207
Rp7208
sg8
g4
(S'51.0120563'
p7209
tp7210
Rp7211
sba(iLocation
Location
p7212
(dp7213
g3
g4
(S'13.6788612'
p7214
tp7215
Rp7216
sg8
g4
(S'51.0115991'
p7217
tp7218
Rp7219
sba(iLocation
Location
p7220
(dp7221
g3
g4
(S'13.7486406'
p7222
tp7223
Rp7224
sg8
g4
(S'51.0780419'
p7225
tp7226
Rp7227
sba(iLocation
Location
p7228
(dp7229
g3
g4
(S'13.7435748'
p7230
tp7231
Rp7232
sg8
g4
(S'51.0439890'
p7233
tp7234
Rp7235
sba(iLocation
Location
p7236
(dp7237
g3
g4
(S'13.7900514'
p7238
tp7239
Rp7240
sg8
g4
(S'50.9589821'
p7241
tp7242
Rp7243
sba(iLocation
Location
p7244
(dp7245
g3
g4
(S'13.7975072'
p7246
tp7247
Rp7248
sg8
g4
(S'51.0276490'
p7249
tp7250
Rp7251
sba(iLocation
Location
p7252
(dp7253
g3
g7024
sg8
g7027
sba(iLocation
Location
p7254
(dp7255
g3
g4
(S'13.7110702'
p7256
tp7257
Rp7258
sg8
g4
(S'51.0284063'
p7259
tp7260
Rp7261
sba(iLocation
Location
p7262
(dp7263
g3
g4
(S'13.6977948'
p7264
tp7265
Rp7266
sg8
g4
(S'51.0835799'
p7267
tp7268
Rp7269
sba(iLocation
Location
p7270
(dp7271
g3
g4
(S'13.6730166'
p7272
tp7273
Rp7274
sg8
g4
(S'51.0434709'
p7275
tp7276
Rp7277
sba(iLocation
Location
p7278
(dp7279
g3
g4
(S'13.6301501'
p7280
tp7281
Rp7282
sg8
g4
(S'51.0491585'
p7283
tp7284
Rp7285
sba(iLocation
Location
p7286
(dp7287
g3
g4
(S'13.7547496'
p7288
tp7289
Rp7290
sg8
g4
(S'51.0186015'
p7291
tp7292
Rp7293
sba(iLocation
Location
p7294
(dp7295
g3
g4
(S'13.7318567'
p7296
tp7297
Rp7298
sg8
g4
(S'51.0580299'
p7299
tp7300
Rp7301
sba(iLocation
Location
p7302
(dp7303
g3
g4
(S'13.6343349'
p7304
tp7305
Rp7306
sg8
g4
(S'50.9816609'
p7307
tp7308
Rp7309
sba(iLocation
Location
p7310
(dp7311
g3
g4
(S'13.6856886'
p7312
tp7313
Rp7314
sg8
g4
(S'51.0056549'
p7315
tp7316
Rp7317
sba(iLocation
Location
p7318
(dp7319
g3
g4
(S'13.6249863'
p7320
tp7321
Rp7322
sg8
g4
(S'51.0832163'
p7323
tp7324
Rp7325
sba(iLocation
Location
p7326
(dp7327
g3
g4
(S'13.7076030'
p7328
tp7329
Rp7330
sg8
g4
(S'51.0504591'
p7331
tp7332
Rp7333
sba(iLocation
Location
p7334
(dp7335
g3
g4
(S'13.7912595'
p7336
tp7337
Rp7338
sg8
g4
(S'51.0917559'
p7339
tp7340
Rp7341
sba(iLocation
Location
p7342
(dp7343
g3
g4
(S'13.7138042'
p7344
tp7345
Rp7346
sg8
g4
(S'51.0807700'
p7347
tp7348
Rp7349
sba(iLocation
Location
p7350
(dp7351
g3
g4
(S'13.8473160'
p7352
tp7353
Rp7354
sg8
g4
(S'51.0590573'
p7355
tp7356
Rp7357
sba(iLocation
Location
p7358
(dp7359
g3
g4
(S'13.7798359'
p7360
tp7361
Rp7362
sg8
g4
(S'51.0143373'
p7363
tp7364
Rp7365
sba(iLocation
Location
p7366
(dp7367
g3
g4
(S'13.5951772'
p7368
tp7369
Rp7370
sg8
g4
(S'50.9999438'
p7371
tp7372
Rp7373
sba(iLocation
Location
p7374
(dp7375
g3
g4
(S'13.7370441'
p7376
tp7377
Rp7378
sg8
g4
(S'51.0470698'
p7379
tp7380
Rp7381
sba(iLocation
Location
p7382
(dp7383
g3
g4
(S'13.7201561'
p7384
tp7385
Rp7386
sg8
g4
(S'51.0524982'
p7387
tp7388
Rp7389
sba(iLocation
Location
p7390
(dp7391
g3
g4
(S'13.6613772'
p7392
tp7393
Rp7394
sg8
g4
(S'51.0563766'
p7395
tp7396
Rp7397
sba(iLocation
Location
p7398
(dp7399
g3
g4
(S'13.7125015'
p7400
tp7401
Rp7402
sg8
g4
(S'51.0511388'
p7403
tp7404
Rp7405
sba(iLocation
Location
p7406
(dp7407
g3
g4
(S'13.7631828'
p7408
tp7409
Rp7410
sg8
g4
(S'51.0377295'
p7411
tp7412
Rp7413
sba(iLocation
Location
p7414
(dp7415
g3
g4
(S'13.8280295'
p7416
tp7417
Rp7418
sg8
g4
(S'51.0636232'
p7419
tp7420
Rp7421
sba(iLocation
Location
p7422
(dp7423
g3
g4
(S'13.7108928'
p7424
tp7425
Rp7426
sg8
g4
(S'51.0918328'
p7427
tp7428
Rp7429
sba(iLocation
Location
p7430
(dp7431
g3
g4
(S'13.8026630'
p7432
tp7433
Rp7434
sg8
g4
(S'50.9887338'
p7435
tp7436
Rp7437
sba(iLocation
Location
p7438
(dp7439
g3
g4
(S'13.7560121'
p7440
tp7441
Rp7442
sg8
g4
(S'51.0283448'
p7443
tp7444
Rp7445
sba(iLocation
Location
p7446
(dp7447
g3
g4
(S'13.7927837'
p7448
tp7449
Rp7450
sg8
g4
(S'51.0005623'
p7451
tp7452
Rp7453
sba(iLocation
Location
p7454
(dp7455
g3
g4
(S'13.7616599'
p7456
tp7457
Rp7458
sg8
g4
(S'51.0316820'
p7459
tp7460
Rp7461
sba(iLocation
Location
p7462
(dp7463
g3
g4
(S'13.8897967'
p7464
tp7465
Rp7466
sg8
g4
(S'50.9970973'
p7467
tp7468
Rp7469
sba(iLocation
Location
p7470
(dp7471
g3
g4
(S'13.7218134'
p7472
tp7473
Rp7474
sg8
g4
(S'51.0402943'
p7475
tp7476
Rp7477
sba(iLocation
Location
p7478
(dp7479
g3
g4
(S'13.7670675'
p7480
tp7481
Rp7482
sg8
g4
(S'51.0418573'
p7483
tp7484
Rp7485
sba(iLocation
Location
p7486
(dp7487
g3
g4
(S'13.8154200'
p7488
tp7489
Rp7490
sg8
g4
(S'51.0275662'
p7491
tp7492
Rp7493
sba(iLocation
Location
p7494
(dp7495
g3
g4
(S'13.7036798'
p7496
tp7497
Rp7498
sg8
g4
(S'51.0924972'
p7499
tp7500
Rp7501
sba(iLocation
Location
p7502
(dp7503
g3
g4
(S'13.8113320'
p7504
tp7505
Rp7506
sg8
g4
(S'50.9848048'
p7507
tp7508
Rp7509
sba(iLocation
Location
p7510
(dp7511
g3
g4
(S'13.7163899'
p7512
tp7513
Rp7514
sg8
g4
(S'51.0483303'
p7515
tp7516
Rp7517
sba(iLocation
Location
p7518
(dp7519
g3
g4
(S'13.7132353'
p7520
tp7521
Rp7522
sg8
g4
(S'51.0794448'
p7523
tp7524
Rp7525
sba(iLocation
Location
p7526
(dp7527
g3
g4
(S'13.7478922'
p7528
tp7529
Rp7530
sg8
g4
(S'51.0576637'
p7531
tp7532
Rp7533
sba(iLocation
Location
p7534
(dp7535
g3
g4
(S'13.7346361'
p7536
tp7537
Rp7538
sg8
g4
(S'51.0528775'
p7539
tp7540
Rp7541
sba(iLocation
Location
p7542
(dp7543
g3
g4
(S'13.7455491'
p7544
tp7545
Rp7546
sg8
g4
(S'51.0331287'
p7547
tp7548
Rp7549
sba(iLocation
Location
p7550
(dp7551
g3
g4
(S'13.7936202'
p7552
tp7553
Rp7554
sg8
g4
(S'51.0079207'
p7555
tp7556
Rp7557
sba(iLocation
Location
p7558
(dp7559
g3
g4
(S'13.7276215'
p7560
tp7561
Rp7562
sg8
g4
(S'50.9929266'
p7563
tp7564
Rp7565
sba(iLocation
Location
p7566
(dp7567
g3
g4
(S'13.8661902'
p7568
tp7569
Rp7570
sg8
g4
(S'51.0160458'
p7571
tp7572
Rp7573
sba(iLocation
Location
p7574
(dp7575
g3
g4
(S'13.7428021'
p7576
tp7577
Rp7578
sg8
g4
(S'51.0846267'
p7579
tp7580
Rp7581
sba(iLocation
Location
p7582
(dp7583
g3
g4
(S'13.8031030'
p7584
tp7585
Rp7586
sg8
g4
(S'51.0102030'
p7587
tp7588
Rp7589
sba(iLocation
Location
p7590
(dp7591
g3
g4
(S'13.8856984'
p7592
tp7593
Rp7594
sg8
g4
(S'51.0718894'
p7595
tp7596
Rp7597
sba(iLocation
Location
p7598
(dp7599
g3
g4
(S'13.7927228'
p7600
tp7601
Rp7602
sg8
g4
(S'51.0322716'
p7603
tp7604
Rp7605
sba(iLocation
Location
p7606
(dp7607
g3
g4
(S'13.7628520'
p7608
tp7609
Rp7610
sg8
g4
(S'50.9953858'
p7611
tp7612
Rp7613
sba(iLocation
Location
p7614
(dp7615
g3
g4
(S'13.7351151'
p7616
tp7617
Rp7618
sg8
g4
(S'51.0750769'
p7619
tp7620
Rp7621
sba(iLocation
Location
p7622
(dp7623
g3
g4
(S'13.7437048'
p7624
tp7625
Rp7626
sg8
g4
(S'51.0591346'
p7627
tp7628
Rp7629
sba(iLocation
Location
p7630
(dp7631
g3
g4
(S'13.7357186'
p7632
tp7633
Rp7634
sg8
g4
(S'51.0286859'
p7635
tp7636
Rp7637
sba(iLocation
Location
p7638
(dp7639
g3
g4
(S'13.7474924'
p7640
tp7641
Rp7642
sg8
g4
(S'51.0197745'
p7643
tp7644
Rp7645
sba(iLocation
Location
p7646
(dp7647
g3
g4
(S'13.8191017'
p7648
tp7649
Rp7650
sg8
g4
(S'51.0316393'
p7651
tp7652
Rp7653
sba(iLocation
Location
p7654
(dp7655
g3
g4
(S'13.7201467'
p7656
tp7657
Rp7658
sg8
g4
(S'51.0929475'
p7659
tp7660
Rp7661
sba(iLocation
Location
p7662
(dp7663
g3
g4
(S'13.7364040'
p7664
tp7665
Rp7666
sg8
g4
(S'51.0757824'
p7667
tp7668
Rp7669
sba(iLocation
Location
p7670
(dp7671
g3
g4
(S'13.7098859'
p7672
tp7673
Rp7674
sg8
g4
(S'51.0298420'
p7675
tp7676
Rp7677
sba(iLocation
Location
p7678
(dp7679
g3
g4
(S'13.6372519'
p7680
tp7681
Rp7682
sg8
g4
(S'51.0669431'
p7683
tp7684
Rp7685
sba(iLocation
Location
p7686
(dp7687
g3
g4
(S'13.8293897'
p7688
tp7689
Rp7690
sg8
g4
(S'51.0775514'
p7691
tp7692
Rp7693
sba(iLocation
Location
p7694
(dp7695
g3
g4
(S'13.7805498'
p7696
tp7697
Rp7698
sg8
g4
(S'50.9670428'
p7699
tp7700
Rp7701
sba(iLocation
Location
p7702
(dp7703
g3
g4
(S'13.8234715'
p7704
tp7705
Rp7706
sg8
g4
(S'51.0277341'
p7707
tp7708
Rp7709
sba(iLocation
Location
p7710
(dp7711
g3
g4
(S'13.7477675'
p7712
tp7713
Rp7714
sg8
g4
(S'51.0308969'
p7715
tp7716
Rp7717
sba(iLocation
Location
p7718
(dp7719
g3
g4
(S'13.7760542'
p7720
tp7721
Rp7722
sg8
g4
(S'51.0697560'
p7723
tp7724
Rp7725
sba(iLocation
Location
p7726
(dp7727
g3
g4
(S'13.8255996'
p7728
tp7729
Rp7730
sg8
g4
(S'50.9955903'
p7731
tp7732
Rp7733
sba(iLocation
Location
p7734
(dp7735
g3
g4
(S'13.7150412'
p7736
tp7737
Rp7738
sg8
g4
(S'50.9951350'
p7739
tp7740
Rp7741
sba(iLocation
Location
p7742
(dp7743
g3
g4
(S'13.7168325'
p7744
tp7745
Rp7746
sg8
g4
(S'51.0652764'
p7747
tp7748
Rp7749
sba(iLocation
Location
p7750
(dp7751
g3
g4
(S'13.7333519'
p7752
tp7753
Rp7754
sg8
g4
(S'51.0431437'
p7755
tp7756
Rp7757
sba(iLocation
Location
p7758
(dp7759
g3
g4
(S'13.7189778'
p7760
tp7761
Rp7762
sg8
g4
(S'51.0305558'
p7763
tp7764
Rp7765
sba(iLocation
Location
p7766
(dp7767
g3
g4
(S'13.7295045'
p7768
tp7769
Rp7770
sg8
g4
(S'51.0387457'
p7771
tp7772
Rp7773
sba(iLocation
Location
p7774
(dp7775
g3
g4
(S'13.7399027'
p7776
tp7777
Rp7778
sg8
g4
(S'51.0590306'
p7779
tp7780
Rp7781
sba(iLocation
Location
p7782
(dp7783
g3
g4
(S'13.7436706'
p7784
tp7785
Rp7786
sg8
g4
(S'51.0848298'
p7787
tp7788
Rp7789
sba(iLocation
Location
p7790
(dp7791
g3
g4
(S'13.8349888'
p7792
tp7793
Rp7794
sg8
g4
(S'51.0078229'
p7795
tp7796
Rp7797
sba(iLocation
Location
p7798
(dp7799
g3
g4
(S'13.6340051'
p7800
tp7801
Rp7802
sg8
g4
(S'50.9675299'
p7803
tp7804
Rp7805
sba(iLocation
Location
p7806
(dp7807
g3
g4
(S'13.7901036'
p7808
tp7809
Rp7810
sg8
g4
(S'51.0741560'
p7811
tp7812
Rp7813
sba(iLocation
Location
p7814
(dp7815
g3
g4
(S'13.6947521'
p7816
tp7817
Rp7818
sg8
g4
(S'51.0798360'
p7819
tp7820
Rp7821
sba(iLocation
Location
p7822
(dp7823
g3
g4
(S'13.6878614'
p7824
tp7825
Rp7826
sg8
g4
(S'51.0371903'
p7827
tp7828
Rp7829
sba(iLocation
Location
p7830
(dp7831
g3
g4
(S'13.6553307'
p7832
tp7833
Rp7834
sg8
g4
(S'51.0161443'
p7835
tp7836
Rp7837
sba(iLocation
Location
p7838
(dp7839
g3
g4
(S'13.6145905'
p7840
tp7841
Rp7842
sg8
g4
(S'50.9665175'
p7843
tp7844
Rp7845
sba(iLocation
Location
p7846
(dp7847
g3
g4
(S'13.7078105'
p7848
tp7849
Rp7850
sg8
g4
(S'51.0518188'
p7851
tp7852
Rp7853
sba(iLocation
Location
p7854
(dp7855
g3
g4
(S'13.7994133'
p7856
tp7857
Rp7858
sg8
g4
(S'50.9960397'
p7859
tp7860
Rp7861
sba(iLocation
Location
p7862
(dp7863
g3
g4
(S'13.8100733'
p7864
tp7865
Rp7866
sg8
g4
(S'51.0933903'
p7867
tp7868
Rp7869
sba(iLocation
Location
p7870
(dp7871
g3
g4
(S'13.6818838'
p7872
tp7873
Rp7874
sg8
g4
(S'51.0471878'
p7875
tp7876
Rp7877
sba(iLocation
Location
p7878
(dp7879
g3
g4
(S'13.7767117'
p7880
tp7881
Rp7882
sg8
g4
(S'51.0643759'
p7883
tp7884
Rp7885
sba(iLocation
Location
p7886
(dp7887
g3
g4
(S'13.8089037'
p7888
tp7889
Rp7890
sg8
g4
(S'50.9966129'
p7891
tp7892
Rp7893
sba(iLocation
Location
p7894
(dp7895
g3
g4
(S'13.6569551'
p7896
tp7897
Rp7898
sg8
g4
(S'51.0494643'
p7899
tp7900
Rp7901
sba(iLocation
Location
p7902
(dp7903
g3
g4
(S'13.6367282'
p7904
tp7905
Rp7906
sg8
g4
(S'51.0801170'
p7907
tp7908
Rp7909
sba(iLocation
Location
p7910
(dp7911
g3
g4
(S'13.6442972'
p7912
tp7913
Rp7914
sg8
g4
(S'51.0354246'
p7915
tp7916
Rp7917
sba(iLocation
Location
p7918
(dp7919
g3
g4
(S'13.8305049'
p7920
tp7921
Rp7922
sg8
g4
(S'50.9826273'
p7923
tp7924
Rp7925
sba(iLocation
Location
p7926
(dp7927
g3
g4
(S'13.7918740'
p7928
tp7929
Rp7930
sg8
g4
(S'51.0277501'
p7931
tp7932
Rp7933
sba(iLocation
Location
p7934
(dp7935
g3
g4
(S'13.7789870'
p7936
tp7937
Rp7938
sg8
g4
(S'51.0559955'
p7939
tp7940
Rp7941
sba(iLocation
Location
p7942
(dp7943
g3
g4
(S'13.7596309'
p7944
tp7945
Rp7946
sg8
g4
(S'51.0279367'
p7947
tp7948
Rp7949
sba.