(lp0
(iLocation
Location
p1
(dp2
S'_y'
p3
F51.0624572
sS'_x'
p4
F13.735583
sba(iLocation
Location
p5
(dp6
g3
F50.9758048
sg4
F13.7224096
sba(iLocation
Location
p7
(dp8
g3
F51.0457279
sg4
F13.677406
sba(iLocation
Location
p9
(dp10
g3
F51.0709638
sg4
F13.771928
sba(iLocation
Location
p11
(dp12
g3
F51.0285197
sg4
F13.6540056
sba(iLocation
Location
p13
(dp14
g3
F51.0197291
sg4
F13.7792148
sba(iLocation
Location
p15
(dp16
g3
F51.0388039
sg4
F13.7685639
sba(iLocation
Location
p17
(dp18
g3
F51.0368628
sg4
F13.7310065
sba(iLocation
Location
p19
(dp20
g3
F51.0100867
sg4
F13.7001954
sba(iLocation
Location
p21
(dp22
g3
F51.0292993
sg4
F13.8205592
sba(iLocation
Location
p23
(dp24
g3
F51.0732553
sg4
F13.7581579
sba(iLocation
Location
p25
(dp26
g3
F51.0166508
sg4
F13.847413
sba(iLocation
Location
p27
(dp28
g3
F51.0201427
sg4
F13.8403377
sba(iLocation
Location
p29
(dp30
g3
F51.017465
sg4
F13.7292145
sba(iLocation
Location
p31
(dp32
g3
F51.0056258
sg4
F13.6575804
sba(iLocation
Location
p33
(dp34
g3
F51.0331856
sg4
F13.7714747
sba(iLocation
Location
p35
(dp36
g3
F51.0883613
sg4
F13.7345306
sba(iLocation
Location
p37
(dp38
g3
F51.0292405
sg4
F13.7324417
sba(iLocation
Location
p39
(dp40
g3
F50.9608585
sg4
F13.8558279
sba(iLocation
Location
p41
(dp42
g3
F51.0812535
sg4
F13.7499972
sba(iLocation
Location
p43
(dp44
g3
F51.0500588
sg4
F13.6560247
sba(iLocation
Location
p45
(dp46
g3
F51.0427273
sg4
F13.7217234
sba(iLocation
Location
p47
(dp48
g3
F51.0153795
sg4
F13.7620601
sba(iLocation
Location
p49
(dp50
g3
F51.0406763
sg4
F13.6089251
sba(iLocation
Location
p51
(dp52
g3
F51.0708748
sg4
F13.7370783
sba(iLocation
Location
p53
(dp54
g3
F51.0446786
sg4
F13.6914086
sba(iLocation
Location
p55
(dp56
g3
F51.0135116
sg4
F13.754529
sba(iLocation
Location
p57
(dp58
g3
F51.0264297
sg4
F13.7223285
sba(iLocation
Location
p59
(dp60
g3
F50.9747312
sg4
F13.6215802
sba(iLocation
Location
p61
(dp62
g3
F51.051482
sg4
F13.7763704
sba(iLocation
Location
p63
(dp64
g3
F51.0040018
sg4
F13.7337577
sba(iLocation
Location
p65
(dp66
g3
F50.9839567
sg4
F13.8739571
sba(iLocation
Location
p67
(dp68
g3
F51.0879833
sg4
F13.646369
sba(iLocation
Location
p69
(dp70
g3
F51.081174
sg4
F13.6890204
sba(iLocation
Location
p71
(dp72
g3
F51.0648188
sg4
F13.7768511
sba(iLocation
Location
p73
(dp74
g3
F51.0565364
sg4
F13.7417419
sba(iLocation
Location
p75
(dp76
g3
F51.0118245
sg4
F13.7779102
sba(iLocation
Location
p77
(dp78
g3
F50.9836158
sg4
F13.5844307
sba(iLocation
Location
p79
(dp80
g3
F50.9656528
sg4
F13.8019515
sba(iLocation
Location
p81
(dp82
g3
F50.9875989
sg4
F13.6594685
sba(iLocation
Location
p83
(dp84
g3
F51.0080318
sg4
F13.6700873
sba(iLocation
Location
p85
(dp86
g3
F51.0607924
sg4
F13.831021
sba(iLocation
Location
p87
(dp88
g3
F51.0372147
sg4
F13.8001718
sba(iLocation
Location
p89
(dp90
g3
F51.0295859
sg4
F13.7099613
sba(iLocation
Location
p91
(dp92
g3
F50.994207
sg4
F13.803075
sba(iLocation
Location
p93
(dp94
g3
F51.00674
sg4
F13.7546396
sba(iLocation
Location
p95
(dp96
g3
F50.994773
sg4
F13.6457627
sba(iLocation
Location
p97
(dp98
g3
F51.0846268
sg4
F13.7680465
sba(iLocation
Location
p99
(dp100
g3
F50.9795764
sg4
F13.6184813
sba(iLocation
Location
p101
(dp102
g3
F51.0824979
sg4
F13.6958757
sba.