(lp0
(iLocation
Location
p1
(dp2
S'_y'
p3
F50.9695473
sS'_x'
p4
F13.6174869
sba(iLocation
Location
p5
(dp6
g3
F50.9978034
sg4
F13.6831197
sba(iLocation
Location
p7
(dp8
g3
F51.0535514
sg4
F13.8159817
sba(iLocation
Location
p9
(dp10
g3
F51.0215833
sg4
F13.7782306
sba(iLocation
Location
p11
(dp12
g3
F51.0092277
sg4
F13.7708502
sba(iLocation
Location
p13
(dp14
g3
F51.0601512
sg4
F13.6648792
sba(iLocation
Location
p15
(dp16
g3
F51.0900372
sg4
F13.6811986
sba(iLocation
Location
p17
(dp18
g3
F51.0152928
sg4
F13.7121628
sba(iLocation
Location
p19
(dp20
g3
F51.0063208
sg4
F13.8058007
sba(iLocation
Location
p21
(dp22
g3
F51.0486435
sg4
F13.7497743
sba(iLocation
Location
p23
(dp24
g3
F51.0419522
sg4
F13.7479758
sba(iLocation
Location
p25
(dp26
g3
F51.0333992
sg4
F13.7305032
sba(iLocation
Location
p27
(dp28
g3
F51.0544461
sg4
F13.757879
sba(iLocation
Location
p29
(dp30
g3
F51.0214555
sg4
F13.7073561
sba(iLocation
Location
p31
(dp32
g3
F51.0877821
sg4
F13.7207419
sba(iLocation
Location
p33
(dp34
g3
F51.0162312
sg4
F13.781094
sba(iLocation
Location
p35
(dp36
g3
F51.0561069
sg4
F13.8526065
sba(iLocation
Location
p37
(dp38
g3
F51.1016658
sg4
F13.7258667
sba(iLocation
Location
p39
(dp40
g3
F51.0297354
sg4
F13.5877004
sba(iLocation
Location
p41
(dp42
g3
F51.0470402
sg4
F13.7383681
sba(iLocation
Location
p43
(dp44
g3
F51.0125293
sg4
F13.8687447
sba(iLocation
Location
p45
(dp46
g3
F51.0816746
sg4
F13.6863234
sba(iLocation
Location
p47
(dp48
g3
F50.9847669
sg4
F13.6331178
sba(iLocation
Location
p49
(dp50
g3
F51.0766512
sg4
F13.6876931
sba(iLocation
Location
p51
(dp52
g3
F51.0248101
sg4
F13.6836191
sba(iLocation
Location
p53
(dp54
g3
F51.0808442
sg4
F13.7412654
sba(iLocation
Location
p55
(dp56
g3
F51.011703
sg4
F13.6528562
sba(iLocation
Location
p57
(dp58
g3
F51.058205
sg4
F13.7134591
sba(iLocation
Location
p59
(dp60
g3
F51.003863
sg4
F13.8511814
sba(iLocation
Location
p61
(dp62
g3
F51.0449955
sg4
F13.7990215
sba(iLocation
Location
p63
(dp64
g3
F51.0025982
sg4
F13.6669002
sba(iLocation
Location
p65
(dp66
g3
F51.0274512
sg4
F13.7619193
sba(iLocation
Location
p67
(dp68
g3
F50.9917952
sg4
F13.7916832
sba(iLocation
Location
p69
(dp70
g3
F51.0038672
sg4
F13.6455665
sba(iLocation
Location
p71
(dp72
g3
F51.0409747
sg4
F13.7259106
sba(iLocation
Location
p73
(dp74
g3
F50.9969528
sg4
F13.8110185
sba(iLocation
Location
p75
(dp76
g3
F50.968551
sg4
F13.6205096
sba(iLocation
Location
p77
(dp78
g3
F51.0123287
sg4
F13.8708909
sba(iLocation
Location
p79
(dp80
g3
F51.0255869
sg4
F13.8653214
sba(iLocation
Location
p81
(dp82
g3
F51.0408541
sg4
F13.6687989
sba(iLocation
Location
p83
(dp84
g3
F51.1002988
sg4
F13.6798908
sba(iLocation
Location
p85
(dp86
g3
F51.0313513
sg4
F13.587323
sba(iLocation
Location
p87
(dp88
g3
F51.0587164
sg4
F13.7260736
sba(iLocation
Location
p89
(dp90
g3
F51.0119094
sg4
F13.6907644
sba(iLocation
Location
p91
(dp92
g3
F51.0691535
sg4
F13.7898806
sba(iLocation
Location
p93
(dp94
g3
F51.0762075
sg4
F13.7289278
sba(iLocation
Location
p95
(dp96
g3
F50.9998352
sg4
F13.6736808
sba(iLocation
Location
p97
(dp98
g3
F51.0326156
sg4
F13.8098127
sba(iLocation
Location
p99
(dp100
g3
F51.0493313
sg4
F13.7127256
sba(iLocation
Location
p101
(dp102
g3
F51.0375167
sg4
F13.8317616
sba(iLocation
Location
p103
(dp104
g3
F51.0354501
sg4
F13.7554085
sba(iLocation
Location
p105
(dp106
g3
F51.0819502
sg4
F13.7519836
sba(iLocation
Location
p107
(dp108
g3
F50.991222
sg4
F13.6941379
sba(iLocation
Location
p109
(dp110
g3
F51.0936306
sg4
F13.7702633
sba(iLocation
Location
p111
(dp112
g3
F51.0291483
sg4
F13.778356
sba(iLocation
Location
p113
(dp114
g3
F51.0463584
sg4
F13.8259137
sba(iLocation
Location
p115
(dp116
g3
F51.0333632
sg4
F13.7222576
sba(iLocation
Location
p117
(dp118
g3
F51.033055
sg4
F13.7409692
sba(iLocation
Location
p119
(dp120
g3
F51.0474278
sg4
F13.7443711
sba(iLocation
Location
p121
(dp122
g3
F51.0406323
sg4
F13.726037
sba(iLocation
Location
p123
(dp124
g3
F51.0642022
sg4
F13.6119691
sba(iLocation
Location
p125
(dp126
g3
F51.0805246
sg4
F13.6902171
sba(iLocation
Location
p127
(dp128
g3
F51.0543701
sg4
F13.7521146
sba(iLocation
Location
p129
(dp130
g3
F51.0809388
sg4
F13.6029979
sba(iLocation
Location
p131
(dp132
g3
F50.9834519
sg4
F13.6830799
sba(iLocation
Location
p133
(dp134
g3
F51.0299097
sg4
F13.7113403
sba(iLocation
Location
p135
(dp136
g3
F51.0026637
sg4
F13.8425432
sba(iLocation
Location
p137
(dp138
g3
F51.014989
sg4
F13.7839423
sba(iLocation
Location
p139
(dp140
g3
F50.9753852
sg4
F13.629615
sba(iLocation
Location
p141
(dp142
g3
F51.02803
sg4
F13.7452384
sba(iLocation
Location
p143
(dp144
g3
F51.0622059
sg4
F13.7623439
sba(iLocation
Location
p145
(dp146
g3
F50.9992083
sg4
F13.8380199
sba(iLocation
Location
p147
(dp148
g3
F51.0575524
sg4
F13.7436468
sba(iLocation
Location
p149
(dp150
g3
F51.0391908
sg4
F13.7760483
sba(iLocation
Location
p151
(dp152
g3
F51.0026954
sg4
F13.6609512
sba(iLocation
Location
p153
(dp154
g3
F51.0050497
sg4
F13.7984919
sba(iLocation
Location
p155
(dp156
g3
F51.0880516
sg4
F13.7672387
sba(iLocation
Location
p157
(dp158
g3
F51.0613282
sg4
F13.7376964
sba(iLocation
Location
p159
(dp160
g3
F51.0926421
sg4
F13.7193176
sba(iLocation
Location
p161
(dp162
g3
F51.0654617
sg4
F13.6378333
sba(iLocation
Location
p163
(dp164
g3
F51.0362117
sg4
F13.6361551
sba(iLocation
Location
p165
(dp166
g3
F51.0162788
sg4
F13.7774319
sba(iLocation
Location
p167
(dp168
g3
F51.0822555
sg4
F13.7001021
sba(iLocation
Location
p169
(dp170
g3
F51.0072106
sg4
F13.6577333
sba(iLocation
Location
p171
(dp172
g3
F51.0306499
sg4
F13.7153507
sba(iLocation
Location
p173
(dp174
g3
F50.9886392
sg4
F13.6398438
sba(iLocation
Location
p175
(dp176
g3
F51.0892386
sg4
F13.7117054
sba(iLocation
Location
p177
(dp178
g3
F51.0601407
sg4
F13.7567984
sba(iLocation
Location
p179
(dp180
g3
F51.0409511
sg4
F13.5879164
sba(iLocation
Location
p181
(dp182
g3
F51.0025833
sg4
F13.7334016
sba(iLocation
Location
p183
(dp184
g3
F51.0693584
sg4
F13.7463792
sba(iLocation
Location
p185
(dp186
g3
F50.9964671
sg4
F13.8421386
sba(iLocation
Location
p187
(dp188
g3
F51.0412393
sg4
F13.735274
sba(iLocation
Location
p189
(dp190
g3
F50.9864203
sg4
F13.669977
sba(iLocation
Location
p191
(dp192
g3
F51.0321296
sg4
F13.8168759
sba(iLocation
Location
p193
(dp194
g3
F51.0279452
sg4
F13.6249199
sba(iLocation
Location
p195
(dp196
g3
F51.0345498
sg4
F13.7158553
sba(iLocation
Location
p197
(dp198
g3
F51.0465911
sg4
F13.6420811
sba(iLocation
Location
p199
(dp200
g3
F50.9804019
sg4
F13.5841981
sba(iLocation
Location
p201
(dp202
g3
F50.999103
sg4
F13.6492904
sba.